EXPORTS 
snprintf
vsnprintf
alphasort
scandir
numericsort
?glutBitmap8By13@@3UGlut_Bitmap_Font@@A
?glutBitmap9By15@@3UGlut_Bitmap_Font@@A
?glutBitmapCharacter@@YAXPAXH@Z
?glutBitmapHelvetica10@@3UGlut_Bitmap_Font@@A
?glutBitmapHelvetica12@@3UGlut_Bitmap_Font@@A
?glutBitmapHelvetica18@@3UGlut_Bitmap_Font@@A
?glutBitmapTimesRoman10@@3UGlut_Bitmap_Font@@A
?glutBitmapTimesRoman24@@3UGlut_Bitmap_Font@@A
?glutBitmapWidth@@YAHHH@Z
??0Fl_Gl_Window@@QAE@HHHHPBD@Z
??0Fl_Gl_Window@@QAE@HHPBD@Z
??0Fl_Glut_Window@@QAE@HHHHPBD@Z
??0Fl_Glut_Window@@QAE@HHPBD@Z
??1Fl_Glut_Window@@UAE@XZ
??_7Fl_Gl_Window@@6B@
??_7Fl_Glut_Window@@6B@
?_init@Fl_Glut_Window@@AAEXXZ
?add@Fl_Group@@QAEXPAVFl_Widget@@@Z
?argument@Fl_Menu_Item@@QBEJXZ
?can_do@Fl_Gl_Window@@SAHH@Z
?damage@Fl_Widget@@QBEEXZ
?draw@Fl_Glut_Window@@MAEXXZ
?draw_overlay@Fl_Glut_Window@@MAEXXZ
?event_button@Fl@@SAHXZ
?event_key@Fl@@SAHXZ
?event_text@Fl@@SAPBDXZ
?event_x@Fl@@SAHXZ
?event_y@Fl@@SAHXZ
?glutAddMenuEntry@@YAXPADH@Z
?glutAddSubMenu@@YAXPADH@Z
?glutChangeToMenuEntry@@YAXHPADH@Z
?glutChangeToSubMenu@@YAXHPADH@Z
?glutCreateMenu@@YAHP6AXH@Z@Z
?glutCreateSubWindow@@YAHHHHHH@Z
?glutCreateWindow@@YAHPAD@Z
?glutDestroyMenu@@YAXH@Z
?glutDestroyWindow@@YAXH@Z
?glutGet@@YAHI@Z
?glutInit@@YAXPAHPAPAD@Z
?glutInitDisplayMode@@YAXI@Z
?glutInitWindowPosition@@YAXHH@Z
?glutInitWindowSize@@YAXHH@Z
?glutLayerGet@@YAHI@Z
?glutMainLoop@@YAXXZ
?glutRemoveMenuItem@@YAXH@Z
?glutSetWindow@@YAXH@Z
?glutSwapBuffers@@YAXXZ
?glut_menu@@3HA
?glut_menustate_function@@3P6AXH@ZA
?glut_menustatus_function@@3P6AXHHH@ZA
?glut_window@@3PAVFl_Glut_Window@@A
?h@Fl_Widget@@QBEHXZ
?handle@Fl_Glut_Window@@MAEHH@Z
?make_current@Fl_Glut_Window@@QAEXXZ
?mode@Fl_Gl_Window@@QAEHH@Z
?parent@Fl_Widget@@QBEPAVFl_Group@@XZ
?resizable@Fl_Group@@QAEXPAVFl_Widget@@@Z
?shown@Fl_Window@@QBEHXZ
?valid@Fl_Gl_Window@@QAEXD@Z
?valid@Fl_Gl_Window@@QBEDXZ
?w@Fl_Widget@@QBEHXZ
?x@Fl_Widget@@QBEHXZ
?y@Fl_Widget@@QBEHXZ
?XRectangleRegion@@YAPAXHHHH@Z
?current@Fl_Window@@SAPAV1@XZ
?gl_finish@@YAXXZ
?gl_start@@YAXXZ
?gl_visual@Fl@@SAHHPAH@Z
?h@Fl_Widget@@QBEHXZ
?w@Fl_Widget@@QBEHXZ
?gl_color@@YAXI@Z
?gl_descent@@YAHXZ
?gl_draw@@YAXPBD@Z
?gl_draw@@YAXPBDH@Z
?gl_draw@@YAXPBDHH@Z
?gl_draw@@YAXPBDHHH@Z
?gl_draw@@YAXPBDHHHHI@Z
?gl_draw@@YAXPBDHNN@Z
?gl_draw@@YAXPBDNN@Z
?gl_draw_image@@YAXPBEHHHHHH@Z
?gl_font@@YAXPBUFl_Font_@@H@Z
?gl_height@@YAHXZ
?gl_measure@@YAXPBDAAH1@Z
?gl_rect@@YAXHHHH@Z
?gl_width@@YANE@Z
?gl_width@@YANPBD@Z
?gl_width@@YANPBDH@Z
??0Fl_Timer@@QAE@EHHHHPBD@Z
??1Fl_Timer@@UAE@XZ
??_7Fl_Timer@@6B@
?align@Fl_Widget@@QAEXI@Z
?box@Fl_Widget@@QAEXPBUFl_Boxtype_@@@Z
?box@Fl_Widget@@QBEPBUFl_Boxtype_@@XZ
?clear_visible@Fl_Widget@@QAEXXZ
?color@Fl_Widget@@QBEIXZ
?do_callback@Fl_Widget@@QAEXXZ
?draw@Fl_Boxtype_@@QBEXHHHHII@Z
?draw@Fl_Timer@@MAEXXZ
?fl_gettime@@YAXPAJ0@Z
?h@Fl_Widget@@QBEHXZ
?handle@Fl_Timer@@UAEHH@Z
?labelcolor@Fl_Widget@@QBEIXZ
?labelfont@Fl_Widget@@QBEPBUFl_Font_@@XZ
?labelsize@Fl_Widget@@QBEIXZ
?selection_color@Fl_Widget@@QAEXI@Z
?selection_color@Fl_Widget@@QBEIXZ
?step@Fl_Timer@@AAEXXZ
?stepcb@Fl_Timer@@CAXPAX@Z
?suspended@Fl_Timer@@QAEXD@Z
?type@Fl_Widget@@QAEXE@Z
?type@Fl_Widget@@QBEEXZ
?value@Fl_Timer@@QAEXN@Z
?w@Fl_Widget@@QBEHXZ
?x@Fl_Widget@@QBEHXZ
?y@Fl_Widget@@QBEHXZ
??0Fl_FormsPixmap@@QAE@PBUFl_Boxtype_@@HHHHPBD@Z
??0Fl_Image@@QAE@XZ
??0Fl_Pixmap@@QAE@PBQBD@Z
??1Fl_FormsPixmap@@UAE@XZ
??1Fl_Pixmap@@UAE@XZ
??_7Fl_FormsPixmap@@6B@
??_7Fl_Image@@6B@
??_7Fl_Pixmap@@6B@
?align@Fl_Widget@@QAEXI@Z
?box@Fl_Widget@@QAEXPBUFl_Boxtype_@@@Z
?box@Fl_Widget@@QBEPBUFl_Boxtype_@@XZ
?color@Fl_Widget@@QAEXI@Z
?color@Fl_Widget@@QBEIXZ
?draw@Fl_Boxtype_@@QBEXHHHHII@Z
?draw@Fl_FormsPixmap@@MAEXXZ
?draw@Fl_Pixmap@@QAEXHHHHI@Z
?h@Fl_Widget@@QBEHXZ
?selection_color@Fl_Widget@@QBEIXZ
?set@Fl_FormsPixmap@@QAEXPBQAD@Z
?w@Fl_Widget@@QBEHXZ
?x@Fl_Widget@@QBEHXZ
?y@Fl_Widget@@QBEHXZ
?fl_get_directory@@YAPADXZ
?fl_get_filename@@YAPADXZ
?fl_get_pattern@@YAPADXZ
?fl_show_file_selector@@YAPADPBD000@Z
??0Fl_Free@@QAE@EHHHHPBDP6AHPAVFl_Widget@@HMMD@Z@Z
??1Fl_Free@@UAE@XZ
??_7Fl_Free@@6B@
?do_callback@Fl_Widget@@QAEXXZ
?draw@Fl_Free@@EAEXXZ
?event_button@Fl@@SAHXZ
?event_key@Fl@@SAHXZ
?event_x@Fl@@SAHXZ
?event_y@Fl@@SAHXZ
?handle@Fl_Free@@EAEHH@Z
?step@Fl_Free@@CAXPAX@Z
?type@Fl_Widget@@QAEXE@Z
?type@Fl_Widget@@QBEEXZ
??0Fl_Repeat_Button@@QAE@HHHHPBD@Z
??1Fl_Button@@UAE@XZ
??1Fl_Repeat_Button@@UAE@XZ
??_7Fl_Repeat_Button@@6B@
?align@Fl_Widget@@QAEXI@Z
?align@Fl_Widget@@QBEIXZ
?array@Fl_Group@@QBEPBQAVFl_Widget@@XZ
?children@Fl_Group@@QBEHXZ
?clear_border@Fl_Window@@QAEXXZ
?clear_flag@Fl_Widget@@IAEXI@Z
?current@Fl_Group@@SAPAV1@XZ
?draw@Fl_FormsText@@MAEXXZ
?end@Fl_Group@@QAEXXZ
?fl_add_button@@YAPAVFl_Button@@EHHHHPBD@Z
?fl_check_forms@@YAPAVFl_Widget@@XZ
?fl_do_forms@@YAPAVFl_Widget@@XZ
?fl_end_form@@YAXXZ
?fl_flip@@3DA
?fl_initialize@@YAXPAHQAPADPBDPAXH@Z
?fl_modal_next@@3DA
?fl_set_graphics_mode@@YAXHH@Z
?fl_set_object_lstyle@@YAXPAVFl_Widget@@H@Z
?fl_show_alert@@YAXPBD00H@Z
?fl_show_choice@@YAHPBD00H000@Z
?fl_show_form@@YAXPAVFl_Window@@HHPBD@Z
?fl_show_message@@YAXPBD00@Z
?fl_show_question@@YAHPBD00@Z
?fl_show_simple_input@@YAPADPBD0@Z
?forms_end@Fl_Group@@QAEXXZ
?free_position@Fl_Window@@QAEXXZ
?h@Fl_Widget@@IAEXH@Z
?h@Fl_Widget@@QBEHXZ
?labelfont@Fl_Widget@@QAEXPBUFl_Font_@@@Z
?labeltype@Fl_Widget@@QAEXPBUFl_Labeltype_@@@Z
?parent@Fl_Widget@@QBEPAVFl_Group@@XZ
?position@Fl_Widget@@QAEXHH@Z
?resizable@Fl_Group@@QAEXPAVFl_Widget@@@Z
?resizable@Fl_Group@@QBEPAVFl_Widget@@XZ
?set_flag@Fl_Widget@@IAEXI@Z
?set_modal@Fl_Window@@QAEXXZ
?type@Fl_Widget@@QAEXE@Z
?type@Fl_Widget@@QBEEXZ
?w@Fl_Widget@@IAEXH@Z
?w@Fl_Widget@@QBEHXZ
?when@Fl_Widget@@QAEXE@Z
?x@Fl_Widget@@IAEXH@Z
?x@Fl_Widget@@QBEHXZ
?y@Fl_Widget@@IAEXH@Z
?y@Fl_Widget@@QBEHXZ
??0Fl_Bitmap@@QAE@PBEHH@Z
??0Fl_FormsBitmap@@QAE@PBUFl_Boxtype_@@HHHHPBD@Z
??0Fl_Image@@QAE@XZ
??1Fl_Bitmap@@UAE@XZ
??1Fl_FormsBitmap@@UAE@XZ
??_7Fl_Bitmap@@6B@
??_7Fl_FormsBitmap@@6B@
??_7Fl_Image@@6B@
?align@Fl_Widget@@QAEXI@Z
?bitmap@Fl_FormsBitmap@@QAEXPAVFl_Bitmap@@@Z
?box@Fl_Widget@@QAEXPBUFl_Boxtype_@@@Z
?box@Fl_Widget@@QBEPBUFl_Boxtype_@@XZ
?color@Fl_Widget@@QAEXI@Z
?color@Fl_Widget@@QBEIXZ
?draw@Fl_Bitmap@@QAEXHHHHI@Z
?draw@Fl_Boxtype_@@QBEXHHHHII@Z
?draw@Fl_FormsBitmap@@MAEXXZ
?h@Fl_Widget@@QBEHXZ
?selection_color@Fl_Widget@@QBEIXZ
?set@Fl_FormsBitmap@@QAEXHHPBE@Z
?w@Fl_Widget@@QBEHXZ
?x@Fl_Widget@@QBEHXZ
?y@Fl_Widget@@QBEHXZ
?measure@Fl_XPM_Image@@UAEXAAH0@Z
?read@Fl_XPM_Image@@EAEXXZ
?test@Fl_XPM_Image@@SAHPAEI@Z
?add_fd@Fl@@SAXHHP6AXHPAX@Z0@Z
?add_fd@Fl@@SAXHP6AXHPAX@Z0@Z
?border@Fl_Window@@QBEHXZ
?borders@Fl_X@@SAHPBVFl_Window@@AAH111@Z
?clear_damage@Fl_Widget@@QAEXE@Z
?create@Fl_Window@@MAEXXZ
?create@Fl_X@@SAPAV1@PAVFl_Window@@@Z
?current_@Fl_Window@@0PAV1@A
?damage@Fl_Widget@@QBEEXZ
?filename_name@@YAPBDPBD@Z
?fl_GetDC@@YAPAXPAX@Z
?fl_default_cursor@@3PAXA
?fl_disable_transient_for@@3HA
?fl_display@@3PAXA
?fl_gc@@3PAXA
?fl_mdi_window@@3PBVFl_Window@@B
?fl_modal_for@@3PBVFl_Window@@B
?fl_msg@@3UtagMSG@@A
?fl_ready@@YAHXZ
?fl_show_iconic@@3_NA
?fl_wait@@YANHN@Z
?fl_window@@3PAXA
?fl_xid@@YAPAXPBVFl_Window@@@Z
?flags@Fl_Widget@@QBEIXZ
?flush@Fl_X@@QAEXXZ
?get_mouse@Fl@@SAXAAH0@Z
?grab@Fl@@SAPAVFl_Window@@XZ
?h@Fl@@SAHXZ
?h@Fl_Widget@@QBEHXZ
?i@Fl_X@@SAPAV1@PBVFl_Window@@@Z
?icon@Fl_Window@@QAEXPBX@Z
?icon@Fl_Window@@QBEPBXXZ
?label@Fl_Widget@@QAEXPBD@Z
?label@Fl_Widget@@QBEPBDXZ
?label@Fl_Window@@QAEXPBD0@Z
?label@Fl_Window@@QBEPBDXZ
?layout@Fl_Window@@UAEXXZ
?make_current@Fl_Window@@QAEXXZ
?oh@Fl_Group@@IBEHXZ
?ow@Fl_Group@@IBEHXZ
?ox@Fl_Group@@IBEHXZ
?oy@Fl_Group@@IBEHXZ
?parent@Fl_Widget@@QBEPAVFl_Group@@XZ
?remove_fd@Fl@@SAXH@Z
?remove_fd@Fl@@SAXHH@Z
?set_flag@Fl_Widget@@IAEXI@Z
?set_minmax@Fl_X@@QAEXPAUtagMINMAXINFO@@@Z
?set_old_size@Fl_Group@@IAEXXZ
?size_range_@Fl_Window@@AAEXXZ
?w@Fl@@SAHXZ
?w@Fl_Widget@@QBEHXZ
?x@Fl@@SAHXZ
?x@Fl_Widget@@QBEHXZ
?y@Fl@@SAHXZ
?y@Fl_Widget@@QBEHXZ
?iconize@Fl_Window@@QAEXXZ
?h@Fl_Widget@@QBEHXZ
?hotspot@Fl_Window@@QAEXHH_N@Z
?hotspot@Fl_Window@@QAEXPBVFl_Widget@@_N@Z
?move@Fl_Window@@QAEXHH@Z
?position@Fl_Widget@@QAEXHH@Z
?w@Fl_Widget@@QBEHXZ
?x@Fl_Widget@@QBEHXZ
?y@Fl_Widget@@QBEHXZ
?fullscreen@Fl_Window@@QAEXXZ
?fullscreen_off@Fl_Window@@QAEXHHHH@Z
?x@Fl_Widget@@IAEXH@Z
?x@Fl_Widget@@QBEHXZ
??0Fl_Window@@QAE@HHHHPBD@Z
??0Fl_Window@@QAE@HHPBD@Z
??_7Fl_Window@@6B@
?_Fl_Window@Fl_Window@@AAEXXZ
?callback@Fl_Widget@@QAEXP6AXPAV1@PAX@Z@Z
?clear_visible@Fl_Widget@@QAEXXZ
?current@Fl_Group@@SAXPAV1@@Z
?default_callback@Fl_Window@@SAXPAV1@PAX@Z
?default_style@Fl_Window@@2UFl_Style@@A
?draw@Fl_Window@@UAEXXZ
?fl_window_style_definer@@3VFl_Style_Definer@@A
?iconlabel@Fl_Window@@QAEXPBD@Z
?iconlabel@Fl_Window@@QBEPBDXZ
?label@Fl_Widget@@QBEPBDXZ
?label@Fl_Window@@QAEXPBD@Z
?label@Fl_Window@@QBEPBDXZ
?parent@Fl_Widget@@QBEPAVFl_Group@@XZ
?resizable@Fl_Group@@QAEXPAVFl_Widget@@@Z
?set_flag@Fl_Widget@@IAEXI@Z
?style@Fl_Widget@@QAEHAAUFl_Style@@@Z
?type@Fl_Widget@@QAEXE@Z
?type@Fl_Widget@@QBEEXZ
?window@Fl_Widget@@QBEPAVFl_Window@@XZ
?x@Fl_Widget@@IAEXH@Z
?x@Fl_Widget@@QBEHXZ
?x_root@Fl_Window@@QBEHXZ
?y@Fl_Widget@@IAEXH@Z
?y@Fl_Widget@@QBEHXZ
?y_root@Fl_Window@@QBEHXZ
??0Fl_Widget@@IAE@HHHHPBD@Z
??1Fl_Widget@@UAE@XZ
??_7Fl_Widget@@6B@
?activate@Fl_Widget@@QAEXXZ
?active@Fl_Widget@@QBEHXZ
?active_r@Fl_Widget@@QBEHXZ
?add@Fl_Group@@QAEXPAVFl_Widget@@@Z
?add_child@Fl_Style@@QBEXPAU1@@Z
?belowmouse@Fl@@SAPAVFl_Widget@@XZ
?box@Fl_Widget@@QBEPBUFl_Boxtype_@@XZ
?clear_flag@Fl_Widget@@IAEXI@Z
?color@Fl_Widget@@QBEIXZ
?contains@Fl_Widget@@QBEHPBV1@@Z
?copy_style@Fl_Widget@@QAEHPBUFl_Style@@@Z
?current@Fl_Group@@SAPAV1@XZ
?damage_resize@Fl_Widget@@QAEHHHHH@Z
?deactivate@Fl_Widget@@QAEXXZ
?default_callback@Fl_Widget@@SAXPAV1@PAX@Z
?default_style@Fl_Widget@@2UFl_Style@@A
?draw@Fl_Boxtype_@@QBEXHHHHII@Z
?draw_box@Fl_Widget@@IBEXXZ
?draw_button@Fl_Widget@@IBEIXZ
?draw_frame@Fl_Widget@@IBEXXZ
?draw_glyph@Fl_Widget@@IBEXHHHHHI@Z
?fl_unique_style@@YAPAUFl_Style@@AAPBU1@@Z
?flags@Fl_Widget@@QBEIXZ
?focus@Fl@@SAPAVFl_Widget@@XZ
?glyph@Fl_Widget@@QBEP6AXHHHHHII@ZXZ
?h@Fl_Widget@@QBEHXZ
?handle@Fl_Widget@@UAEHH@Z
?hide@Fl_Widget@@QAEXXZ
?highlight_color@Fl_Widget@@QBEIXZ
?highlight_label_color@Fl_Widget@@QBEIXZ
?inside@Fl_Widget@@QBEHPBV1@@Z
?label_color@Fl_Widget@@QBEIXZ
?layout@Fl_Widget@@UAEXXZ
?parent@Fl_Widget@@QBEPAVFl_Group@@XZ
?readqueue@Fl@@SAPAVFl_Widget@@XZ
?resize@Fl_Widget@@QAEXHHHH@Z
?selection_color@Fl_Widget@@QBEIXZ
?selection_text_color@Fl_Widget@@QBEIXZ
?set_flag@Fl_Widget@@IAEXI@Z
?seti@Fl_Style@@QAEXPAII@Z
?seti@Fl_Style@@QAEXPAIIH@Z
?seti@Fl_Widget@@IAEXPBII@Z
?setp@Fl_Style@@QAEXPAPBXPBX@Z
?setp@Fl_Style@@QAEXPAPBXPBXH@Z
?setp@Fl_Widget@@IAEXPBQBXPBX@Z
?show@Fl_Widget@@QAEXXZ
?style@Fl_Widget@@QAEHPAUFl_Style@@@Z
?take_focus@Fl_Widget@@QAEHXZ
?takesevents@Fl_Widget@@QBEHXZ
?visible@Fl_Widget@@QBEHXZ
?visible_r@Fl_Widget@@QBEHXZ
?w@Fl_Widget@@QBEHXZ
?x@Fl_Widget@@QBEHXZ
?y@Fl_Widget@@QBEHXZ
?visual@Fl@@SAHH@Z
?fl_RGB@@YAKXZ
?fl_begin_complex_polygon@@YAXXZ
?fl_begin_line@@YAXXZ
?fl_begin_loop@@YAXXZ
?fl_begin_points@@YAXXZ
?fl_begin_polygon@@YAXXZ
?fl_circle@@YAXNNN@Z
?fl_end_complex_polygon@@YAXXZ
?fl_end_line@@YAXXZ
?fl_end_loop@@YAXXZ
?fl_end_points@@YAXXZ
?fl_end_polygon@@YAXXZ
?fl_gap@@YAXXZ
?fl_mult_matrix@@YAXNNNNNN@Z
?fl_pop_matrix@@YAXXZ
?fl_push_matrix@@YAXXZ
?fl_rotate@@YAXN@Z
?fl_scale@@YAXN@Z
?fl_scale@@YAXNN@Z
?fl_transform_dx@@YANNN@Z
?fl_transform_dy@@YANNN@Z
?fl_transform_x@@YANNN@Z
?fl_transform_y@@YANNN@Z
?fl_transformed_vertex@@YAXNN@Z
?fl_translate@@YAXNN@Z
?fl_vertex@@YAXNN@Z
??0Fl_Value_Slider@@QAE@HHHHPBD@Z
??1Fl_Slider@@UAE@XZ
??1Fl_Valuator@@UAE@XZ
??1Fl_Value_Slider@@UAE@XZ
??_7Fl_Value_Slider@@6B@
?box@Fl_Widget@@QBEPBUFl_Boxtype_@@XZ
?color@Fl_Widget@@QBEIXZ
?default_style@Fl_Value_Slider@@2UFl_Style@@A
?dh@Fl_Boxtype_@@QBEHXZ
?draw@Fl_Boxtype_@@QBEXHHHHII@Z
?draw@Fl_Value_Slider@@UAEXXZ
?dw@Fl_Boxtype_@@QBEHXZ
?dx@Fl_Boxtype_@@QBEHXZ
?dy@Fl_Boxtype_@@QBEHXZ
?h@Fl_Widget@@QBEHXZ
?handle@Fl_Value_Slider@@UAEHH@Z
?horizontal@Fl_Valuator@@IBE_NXZ
?step@Fl_Valuator@@QAEXN@Z
?step@Fl_Valuator@@QAEXNH@Z
?style@Fl_Widget@@QAEHAAUFl_Style@@@Z
?textcolor@Fl_Widget@@QBEIXZ
?textfont@Fl_Widget@@QBEPBUFl_Font_@@XZ
?textsize@Fl_Widget@@QBEIXZ
?type@Fl_Widget@@QBEEXZ
?w@Fl_Widget@@QBEHXZ
?x@Fl_Widget@@QBEHXZ
?y@Fl_Widget@@QBEHXZ
??0Fl_Value_Output@@QAE@HHHHPBD@Z
??1Fl_Valuator@@UAE@XZ
??1Fl_Value_Output@@UAE@XZ
??_7Fl_Value_Output@@6B@
?align@Fl_Widget@@QAEXI@Z
?box@Fl_Widget@@QBEPBUFl_Boxtype_@@XZ
?color@Fl_Widget@@QBEIXZ
?damage@Fl_Widget@@QBEEXZ
?dh@Fl_Boxtype_@@QBEHXZ
?draw@Fl_Value_Output@@UAEXXZ
?dw@Fl_Boxtype_@@QBEHXZ
?dx@Fl_Boxtype_@@QBEHXZ
?dy@Fl_Boxtype_@@QBEHXZ
?event_button@Fl@@SAHXZ
?event_x@Fl@@SAHXZ
?h@Fl_Widget@@QBEHXZ
?handle@Fl_Value_Output@@UAEHH@Z
?handle_push@Fl_Valuator@@IAEXXZ
?previous_value@Fl_Valuator@@IBENXZ
?soft@Fl_Value_Output@@QBEEXZ
?step@Fl_Valuator@@QBENXZ
?style@Fl_Widget@@QAEHAAUFl_Style@@@Z
?textcolor@Fl_Widget@@QBEIXZ
?textfont@Fl_Widget@@QBEPBUFl_Font_@@XZ
?textsize@Fl_Widget@@QBEIXZ
?w@Fl_Widget@@QBEHXZ
?x@Fl_Widget@@QBEHXZ
?y@Fl_Widget@@QBEHXZ
??0Fl_Value_Input@@QAE@HHHHPBD@Z
??1Fl_Input@@UAE@XZ
??1Fl_Valuator@@UAE@XZ
??1Fl_Value_Input@@UAE@XZ
??_7Fl_Value_Input@@6B@
?align@Fl_Widget@@QAEXI@Z
?callback@Fl_Widget@@QAEXP6AXPAV1@PAX@Z1@Z
?clear_damage@Fl_Widget@@QAEXE@Z
?damage@Fl_Widget@@QBEEXZ
?draw@Fl_Value_Input@@UAEXXZ
?event_button@Fl@@SAHXZ
?event_is_click@Fl@@SAHXZ
?event_x@Fl@@SAHXZ
?h@Fl_Widget@@QBEHXZ
?handle@Fl_Value_Input@@UAEHH@Z
?handle_push@Fl_Valuator@@IAEXXZ
?input_cb@Fl_Value_Input@@CAXPAVFl_Widget@@PAX@Z
?layout@Fl_Value_Input@@MAEXXZ
?mark@Fl_Input_@@QAEHH@Z
?parent@Fl_Widget@@QAEXPBV1@@Z
?parent@Fl_Widget@@QBEPAVFl_Group@@XZ
?position@Fl_Input_@@QBEHXZ
?previous_value@Fl_Valuator@@IBENXZ
?pushed@Fl@@SAPAVFl_Widget@@XZ
?soft@Fl_Value_Input@@QBEDXZ
?step@Fl_Valuator@@QBENXZ
?style@Fl_Widget@@QAEHAAUFl_Style@@@Z
?style@Fl_Widget@@QBEPBUFl_Style@@XZ
?type@Fl_Widget@@QAEXE@Z
?value@Fl_Input_@@QBEPBDXZ
?value@Fl_Valuator@@QBENXZ
?value_damage@Fl_Value_Input@@EAEXXZ
?w@Fl_Widget@@QBEHXZ
?when@Fl_Widget@@QAEXE@Z
?x@Fl_Widget@@QBEHXZ
?y@Fl_Widget@@QBEHXZ
??0Fl_Valuator@@IAE@HHHHPBD@Z
??1Fl_Valuator@@UAE@XZ
??_7Fl_Valuator@@6B@
?align@Fl_Widget@@QAEXI@Z
?clamp@Fl_Valuator@@QAENN@Z
?clear_changed@Fl_Widget@@QAEXXZ
?do_callback@Fl_Widget@@QAEXXZ
?format@Fl_Valuator@@UAEHPAD@Z
?handle_drag@Fl_Valuator@@IAEXN@Z
?handle_release@Fl_Valuator@@IAEXXZ
?increment@Fl_Valuator@@QAENNH@Z
?precision@Fl_Valuator@@QAEXH@Z
?pushed@Fl@@SAPAVFl_Widget@@XZ
?rint@@YANN@Z
?round@Fl_Valuator@@QAENN@Z
?set_changed@Fl_Widget@@QAEXXZ
?softclamp@Fl_Valuator@@IAENN@Z
?value@Fl_Valuator@@QAE_NN@Z
?value@Fl_Valuator@@QBENXZ
?value_damage@Fl_Valuator@@MAEXXZ
?when@Fl_Widget@@QAEXE@Z
?when@Fl_Widget@@QBE?AW4Fl_When@@XZ
??0Fl_Menu_Window@@QAE@HHHHPBD@Z
??0Fl_Single_Window@@QAE@HHHHPBD@Z
??0Fl_TooltipBox@@QAE@XZ
??1Fl_Single_Window@@UAE@XZ
??1Fl_TooltipBox@@UAE@XZ
??_7Fl_Menu_Window@@6B@
??_7Fl_Single_Window@@6B@
??_7Fl_TooltipBox@@6B@
?box@Fl_Widget@@QBEPBUFl_Boxtype_@@XZ
?clear_border@Fl_Window@@QAEXXZ
?color@Fl_Widget@@QBEIXZ
?current@Fl_Group@@SAPAV1@XZ
?current@Fl_Group@@SAXPAV1@@Z
?default_style@Fl_Tooltip@@2UFl_Style@@A
?delay@Fl_Tooltip@@SAMXZ
?delay_@Fl_Tooltip@@0MA
?draw@Fl_Boxtype_@@QBEXHHHHII@Z
?draw@Fl_TooltipBox@@UAEXXZ
?enabled_@Fl_Tooltip@@0HA
?end@Fl_Group@@QAEXXZ
?event_x_root@Fl@@SAHXZ
?event_y_root@Fl@@SAHXZ
?fl_tooltip_enter@@3P6AXPAVFl_Widget@@@ZA
?fl_tooltip_exit@@3P6AXPAVFl_Widget@@@ZA
?fl_tooltip_style_definer@@3VFl_Style_Definer@@A
?grab@Fl@@SAPAVFl_Window@@XZ
?h@Fl_Widget@@QBEHXZ
?label@Fl_Widget@@QAEXPBD@Z
?parent@Fl_Widget@@QBEPAVFl_Group@@XZ
?set_flag@Fl_Widget@@IAEXI@Z
?style@Fl_Widget@@QAEHAAUFl_Style@@@Z
?tooltip@Fl_Widget@@QBEPBDXZ
?tooltip_enter@Fl_Tooltip@@SAXPAVFl_Widget@@@Z
?tooltip_exit@Fl_Tooltip@@SAXPAVFl_Widget@@@Z
?w@Fl_Widget@@QBEHXZ
?y@Fl_Widget@@QBEHXZ
?array@Fl_Group@@QBEPBQAVFl_Widget@@XZ
?children@Fl_Group@@QBEHXZ
?event_x@Fl@@SAHXZ
?event_y@Fl@@SAHXZ
?h@Fl_Widget@@QBEHXZ
?handle@Fl_Tile@@UAEHH@Z
?layout@Fl_Tile@@EAEXXZ
?oh@Fl_Group@@IBEHXZ
?ow@Fl_Group@@IBEHXZ
?ox@Fl_Group@@IBEHXZ
?oy@Fl_Group@@IBEHXZ
?position@Fl_Tile@@QAEXHHHH@Z
?resizable@Fl_Group@@QBEPAVFl_Widget@@XZ
?set_old_size@Fl_Group@@IAEXXZ
?w@Fl_Widget@@QBEHXZ
?x@Fl_Widget@@QBEHXZ
?y@Fl_Widget@@QBEHXZ
??0Fl_Tabs@@QAE@HHHHPBD@Z
??1Fl_Tabs@@UAE@XZ
??_7Fl_Tabs@@6B@
?array@Fl_Group@@QBEPBQAVFl_Widget@@XZ
?box@Fl_Widget@@QBEPBUFl_Boxtype_@@XZ
?child@Fl_Group@@QBEPAVFl_Widget@@H@Z
?children@Fl_Group@@QBEHXZ
?color@Fl_Widget@@QBEIXZ
?damage@Fl_Widget@@QBEEXZ
?do_callback@Fl_Widget@@QAEXXZ
?draw@Fl_Tabs@@EAEXXZ
?draw_tab@Fl_Tabs@@AAEXHHHHPAVFl_Widget@@H@Z
?dy@Fl_Boxtype_@@QBEHXZ
?event_x@Fl@@SAHXZ
?event_y@Fl@@SAHXZ
?fl_tabs_fake@@3_NA
?fl_tabs_style_definer@@3VFl_Style_Definer@@A
?h@Fl_Widget@@QBEHXZ
?handle@Fl_Tabs@@UAEHH@Z
?label@Fl_Widget@@QAEXPBD@Z
?label@Fl_Widget@@QBEPBDXZ
?parent@Fl_Widget@@QBEPAVFl_Group@@XZ
?push@Fl_Tabs@@QAEHPAVFl_Widget@@@Z
?pushed@Fl@@SAPAVFl_Widget@@XZ
?style@Fl_Widget@@QAEHAAUFl_Style@@@Z
?tab_height@Fl_Tabs@@AAEHXZ
?tab_positions@Fl_Tabs@@AAEHPAH0@Z
?type@Fl_Widget@@QAEXE@Z
?value@Fl_Tabs@@QAEHPAVFl_Widget@@@Z
?value@Fl_Tabs@@QAEPAVFl_Widget@@XZ
?visible@Fl_Widget@@QBEHXZ
?w@Fl_Widget@@QBEHXZ
?which@Fl_Tabs@@QAEPAVFl_Widget@@HH@Z
?x@Fl_Widget@@QBEHXZ
?y@Fl_Widget@@QBEHXZ
?enable_symbols@Fl@@SAXXZ
?fl_add_symbol@@YAHPBDP6AXI@ZH@Z
?fl_draw_symbol@@YAHPBDHHHHI@Z
?fl_symbol_label@@3UFl_Labeltype_@@B
??0Fl_Style_Definer@@QAE@PADAAUFl_Style@@@Z
?fl_add_style_def@@YA_NPADPAUFl_Style@@@Z
?fl_add_style_entry_def@@YAXPADP6A_NAAUFl_Style@@0@Z@Z
?fl_parse_style_entry@@YA_NPADAAUFl_Style@@0@Z
?fl_search_style@@YAPAUFl_Style@@PAD@Z
?fl_parse_color@@YAIAAPAD@Z
?fl_parse_word@@YAPADAAPAD@Z
?fl_read_style_plugins@@YAXPBD@Z
?fl_rgb@@YAIEEE@Z
?fl_use_image_in_style@@YAXXZ
?is@@YA_NPADD@Z
??0Fl_Slider@@QAE@EHHHHPBD@Z
??0Fl_Slider@@QAE@HHHHPBD@Z
??1Fl_Slider@@UAE@XZ
??1Fl_Valuator@@UAE@XZ
??_7Fl_Slider@@6B@
?belowmouse@Fl@@SAPAVFl_Widget@@XZ
?box@Fl_Widget@@QBEPBUFl_Boxtype_@@XZ
?color2@Fl_Widget@@QBEIXZ
?color@Fl_Widget@@QBEIXZ
?damage@Fl_Widget@@QBEEXZ
?default_style@Fl_Slider@@2UFl_Style@@A
?dh@Fl_Boxtype_@@QBEHXZ
?draw@Fl_Boxtype_@@QBEXHHHHII@Z
?draw@Fl_Slider@@IAEXHHHH@Z
?draw@Fl_Slider@@UAEXXZ
?draw_bg@Fl_Slider@@AAEXHHHH@Z
?dw@Fl_Boxtype_@@QBEHXZ
?dx@Fl_Boxtype_@@QBEHXZ
?dy@Fl_Boxtype_@@QBEHXZ
?event_x@Fl@@SAHXZ
?event_y@Fl@@SAHXZ
?glyph@Fl_Widget@@QBEP6AXHHHHHII@ZXZ
?h@Fl_Widget@@QBEHXZ
?handle@Fl_Slider@@IAEHHHHHH@Z
?handle@Fl_Slider@@UAEHH@Z
?handle_push@Fl_Valuator@@IAEXXZ
?highlight_color@Fl_Widget@@QBEIXZ
?horizontal@Fl_Valuator@@IBE_NXZ
?label_color@Fl_Widget@@QBEIXZ
?maximum@Fl_Valuator@@QBENXZ
?minimum@Fl_Valuator@@QBENXZ
?slider_position@Fl_Slider@@IAEHHH@Z
?slider_size@Fl_Slider@@IAEHHH@Z
?style@Fl_Widget@@QAEHAAUFl_Style@@@Z
?type@Fl_Widget@@QAEXE@Z
?type@Fl_Widget@@QBEEXZ
?value@Fl_Valuator@@QBENXZ
?w@Fl_Widget@@QBEHXZ
?x@Fl_Widget@@QBEHXZ
?y@Fl_Widget@@QBEHXZ
??0ColorMenu@@QAE@I@Z
??1ColorMenu@@UAE@XZ
??_7ColorMenu@@6B@
?clear_border@Fl_Window@@QAEXXZ
?color@Fl_Widget@@QBEIXZ
?damage@Fl_Widget@@QBEEXZ
?draw@ColorMenu@@EAEXXZ
?draw@Fl_Boxtype_@@QBEXHHHHII@Z
?drawbox@ColorMenu@@AAEXI@Z
?event_key@Fl@@SAHXZ
?event_x_root@Fl@@SAHXZ
?event_y_root@Fl@@SAHXZ
?fl_show_colormap@@YAII@Z
?h@Fl_Widget@@QBEHXZ
?handle@ColorMenu@@EAEHH@Z
?position@Fl_Widget@@QAEXHH@Z
?pushed@Fl@@SAPAVFl_Widget@@XZ
?run@ColorMenu@@QAEIXZ
?set_flag@Fl_Widget@@IAEXI@Z
?set_modal@Fl_Window@@QAEXXZ
?w@Fl_Widget@@QBEHXZ
?x@Fl_Widget@@QBEHXZ
?y@Fl_Widget@@QBEHXZ
?event_key@Fl@@SAHXZ
?event_state@Fl@@SAHXZ
?event_text@Fl@@SAPBDXZ
?fl_shortcut_label@@YAPBDH@Z
?flags@Fl_Widget@@QBEIXZ
?label@Fl_Widget@@QBEPBDXZ
?test_shortcut@Fl@@SAHH@Z
?test_shortcut@Fl_Widget@@QAEHXZ
?test_shortcut@Fl_Widget@@SAHPBD@Z
??0Fl_Bitmap@@QAE@PBEHH@Z
??0Fl_Image@@QAE@XZ
??1Fl_Bitmap@@UAE@XZ
??1Fl_Shared_Image@@MAE@XZ
??_7Fl_Bitmap@@6B@
??_7Fl_Image@@6B@
??_7Fl_Shared_Image@@6B@
?check_mem_usage@Fl_Shared_Image@@KAXXZ
?draw@Fl_Shared_Image@@UAEXHHHHHH@Z
?find@Fl_Shared_Image@@KAPAV1@PAV1@PAD@Z
?find_less_used@Fl_Shared_Image@@IAEXXZ
?fl_shared_image_root@@3PADA
?get@Fl_Shared_Image@@SAPAV1@P6APAV1@XZPADPAE@Z
?get_filename@Fl_Shared_Image@@IAEPADXZ
?insert@Fl_Shared_Image@@KAXAAPAV1@PAV1@@Z
?nosuch_bitmap@@3VFl_Bitmap@@A
?reload@Fl_Shared_Image@@QAEXPAE@Z
?reload@Fl_Shared_Image@@SAXPADPAE@Z
?remove@Fl_Shared_Image@@QAEHXZ
?remove@Fl_Shared_Image@@SAHPAD@Z
?remove_from_tree@Fl_Shared_Image@@IAEXAAPAV1@PAV1@@Z
?set_cache_size@Fl_Shared_Image@@SAXI@Z
?set_root_directory@Fl_Shared_Image@@SAXPAD@Z
?fl_shadow_box@@3UFl_Boxtype_@@B
??0Fl_Scrollbar@@QAE@HHHHPBD@Z
??1Fl_Scrollbar@@UAE@XZ
??1Fl_Slider@@UAE@XZ
??1Fl_Valuator@@UAE@XZ
??_7Fl_Scrollbar@@6B@
?belowmouse@Fl@@SAPAVFl_Widget@@XZ
?box@Fl_Widget@@QBEPBUFl_Boxtype_@@XZ
?color2@Fl_Widget@@QBEIXZ
?damage@Fl_Widget@@QBEEXZ
?default_style@Fl_Scrollbar@@2UFl_Style@@A
?dh@Fl_Boxtype_@@QBEHXZ
?do_callback@Fl_Widget@@QAEXXZ
?draw@Fl_Scrollbar@@EAEXXZ
?dw@Fl_Boxtype_@@QBEHXZ
?dx@Fl_Boxtype_@@QBEHXZ
?dy@Fl_Boxtype_@@QBEHXZ
?event_key@Fl@@SAHXZ
?event_x@Fl@@SAHXZ
?event_y@Fl@@SAHXZ
?fl_scrollbar_style_definer@@3VFl_Style_Definer@@A
?glyph@Fl_Widget@@QBEP6AXHHHHHII@ZXZ
?h@Fl_Widget@@QBEHXZ
?handle@Fl_Scrollbar@@EAEHH@Z
?handle_push@Fl_Valuator@@IAEXXZ
?highlight_color@Fl_Widget@@QBEIXZ
?horizontal@Fl_Valuator@@IBE_NXZ
?increment_cb@Fl_Scrollbar@@AAEXXZ
?maximum@Fl_Valuator@@QAEXN@Z
?maximum@Fl_Valuator@@QBENXZ
?minimum@Fl_Valuator@@QAEXN@Z
?minimum@Fl_Valuator@@QBENXZ
?slider_size@Fl_Slider@@QAEXH@Z
?slider_size@Fl_Slider@@QBEHXZ
?step@Fl_Valuator@@QAEXN@Z
?style@Fl_Widget@@QAEHAAUFl_Style@@@Z
?timeout_cb@Fl_Scrollbar@@CAXPAX@Z
?type@Fl_Widget@@QBEEXZ
?value@Fl_Scrollbar@@QAEHXZ
?value@Fl_Scrollbar@@QAE_NHHHH@Z
?value@Fl_Valuator@@QBENXZ
?w@Fl_Widget@@QBEHXZ
?x@Fl_Widget@@QBEHXZ
?y@Fl_Widget@@QBEHXZ
?fl_scroll@@YAXHHHHHHP6AXPAXHHHH@Z0@Z
??0Fl_Scroll@@QAE@HHHHPBD@Z
??1Fl_Scroll@@UAE@XZ
??1Fl_Scrollbar@@UAE@XZ
??1Fl_Slider@@UAE@XZ
??1Fl_Valuator@@UAE@XZ
??_7Fl_Scroll@@6B@
?align@Fl_Widget@@QBEIXZ
?array@Fl_Group@@QBEPBQAVFl_Widget@@XZ
?bbox@Fl_Scroll@@AAEXAAH000@Z
?box@Fl_Widget@@QBEPBUFl_Boxtype_@@XZ
?callback@Fl_Widget@@QAEXP6AXPAV1@PAX@Z@Z
?children@Fl_Group@@QBEHXZ
?clear_visible@Fl_Widget@@QAEXXZ
?color@Fl_Widget@@QBEIXZ
?damage@Fl_Widget@@QBEEXZ
?dh@Fl_Boxtype_@@QBEHXZ
?draw@Fl_Scroll@@MAEXXZ
?draw_clip@Fl_Scroll@@CAXPAXHHHH@Z
?dw@Fl_Boxtype_@@QBEHXZ
?dx@Fl_Boxtype_@@QBEHXZ
?dy@Fl_Boxtype_@@QBEHXZ
?fix_scrollbar_order@Fl_Scroll@@AAEXXZ
?h@Fl_Widget@@QBEHXZ
?handle@Fl_Scroll@@UAEHH@Z
?hscrollbar_cb@Fl_Scroll@@CAXPAVFl_Widget@@PAX@Z
?layout@Fl_Scroll@@MAEXXZ
?ox@Fl_Group@@IBEHXZ
?oy@Fl_Group@@IBEHXZ
?parent@Fl_Widget@@QBEPAVFl_Group@@XZ
?position@Fl_Scroll@@QAEXHH@Z
?position@Fl_Widget@@QAEXHH@Z
?scrollbar_cb@Fl_Scroll@@CAXPAVFl_Widget@@PAX@Z
?set_old_size@Fl_Group@@IAEXXZ
?set_visible@Fl_Widget@@QAEXXZ
?type@Fl_Widget@@QAEXE@Z
?type@Fl_Widget@@QBEEXZ
?value@Fl_Scrollbar@@QAEHXZ
?value@Fl_Valuator@@QBENXZ
?visible@Fl_Widget@@QBEHXZ
?w@Fl_Widget@@QBEHXZ
?x@Fl_Widget@@QBEHXZ
?xposition@Fl_Scroll@@QBEHXZ
?y@Fl_Widget@@QBEHXZ
?yposition@Fl_Scroll@@QBEHXZ
?fl_rflat_box@@3UFl_Boxtype_@@B
?fl_rounded_box@@3UFl_Boxtype_@@B
?fl_rshadow_box@@3UFl_Boxtype_@@B
?dx@Fl_Boxtype_@@QBEHXZ
?fl_arc_i@@YAXHHHHNN@Z
?fl_round_box@@3UFl_Boxtype_@@B
?fl_round_down_box@@3UFl_Boxtype_@@B
??0Fl_Roller@@QAE@HHHHPBD@Z
??1Fl_Roller@@UAE@XZ
??1Fl_Valuator@@UAE@XZ
??_7Fl_Roller@@6B@
?box@Fl_Widget@@QBEPBUFl_Boxtype_@@XZ
?color@Fl_Widget@@QBEIXZ
?damage@Fl_Widget@@QBEEXZ
?dh@Fl_Boxtype_@@QBEHXZ
?draw@Fl_Roller@@MAEXXZ
?dw@Fl_Boxtype_@@QBEHXZ
?dx@Fl_Boxtype_@@QBEHXZ
?dy@Fl_Boxtype_@@QBEHXZ
?event_x@Fl@@SAHXZ
?event_y@Fl@@SAHXZ
?h@Fl_Widget@@QBEHXZ
?handle@Fl_Roller@@UAEHH@Z
?handle_push@Fl_Valuator@@IAEXXZ
?horizontal@Fl_Valuator@@IBE_NXZ
?previous_value@Fl_Valuator@@IBENXZ
?step@Fl_Valuator@@QAEXN@Z
?step@Fl_Valuator@@QAEXNH@Z
?step@Fl_Valuator@@QBENXZ
?type@Fl_Widget@@QBEEXZ
?value@Fl_Valuator@@QBENXZ
?w@Fl_Widget@@QBEHXZ
?x@Fl_Widget@@QBEHXZ
?y@Fl_Widget@@QBEHXZ
??0Fl_Return_Button@@QAE@HHHHPBD@Z
??1Fl_Button@@UAE@XZ
??1Fl_Return_Button@@UAE@XZ
??_7Fl_Return_Button@@6B@
?do_callback@Fl_Widget@@QAEXXZ
?draw@Fl_Return_Button@@MAEXXZ
?event_key@Fl@@SAHXZ
?fl_return_arrow@@YAHHHHH@Z
?fl_return_arrow@@YAHHHHHH@Z
?h@Fl_Widget@@QBEHXZ
?handle@Fl_Return_Button@@UAEHH@Z
?w@Fl_Widget@@QBEHXZ
?x@Fl_Widget@@QBEHXZ
?y@Fl_Widget@@QBEHXZ
?do_callback@Fl_Widget@@QAEXXZ
?handle@Fl_Repeat_Button@@UAEHH@Z
?repeat_callback@Fl_Repeat_Button@@CAXPAX@Z
?XDestroyRegion@@YAXPAX@Z
?XRectangleRegion@@YAPAXHHHH@Z
?fl_RGB@@YAKXZ
?fl_clip@@YAXHHHH@Z
?fl_clip_box@@YAHHHHHAAH000@Z
?fl_clip_out@@YAXHHHH@Z
?fl_clip_region@@YAXPAX@Z
?fl_clip_state_number@@3HA
?fl_line@@YAXHHHH@Z
?fl_line@@YAXHHHHHH@Z
?fl_loop@@YAXHHHHHH@Z
?fl_loop@@YAXHHHHHHHH@Z
?fl_not_clipped@@YAHHHHH@Z
?fl_point@@YAXHH@Z
?fl_polygon@@YAXHHHHHH@Z
?fl_polygon@@YAXHHHHHHHH@Z
?fl_pop_clip@@YAXXZ
?fl_push_no_clip@@YAXXZ
?fl_rect@@YAXHHHH@Z
?fl_rectf@@YAXHHHH@Z
?fl_restore_clip@@YAXXZ
?fl_xyline@@YAXHHH@Z
?fl_xyline@@YAXHHHH@Z
?fl_xyline@@YAXHHHHH@Z
?fl_yxline@@YAXHHH@Z
?fl_yxline@@YAXHHHH@Z
?fl_yxline@@YAXHHHHH@Z
??0Fl_Positioner@@QAE@HHHHPBD@Z
??1Fl_Positioner@@UAE@XZ
??_7Fl_Positioner@@6B@
?align@Fl_Widget@@QAEXI@Z
?box@Fl_Widget@@QBEPBUFl_Boxtype_@@XZ
?changed@Fl_Widget@@QBEHXZ
?clear_changed@Fl_Widget@@QAEXXZ
?dh@Fl_Boxtype_@@QBEHXZ
?do_callback@Fl_Widget@@QAEXXZ
?draw@Fl_Positioner@@IAEXHHHH@Z
?draw@Fl_Positioner@@MAEXXZ
?dw@Fl_Boxtype_@@QBEHXZ
?dx@Fl_Boxtype_@@QBEHXZ
?dy@Fl_Boxtype_@@QBEHXZ
?event_x@Fl@@SAHXZ
?event_y@Fl@@SAHXZ
?fl_positioner_style_definer@@3VFl_Style_Definer@@A
?h@Fl_Widget@@QBEHXZ
?handle@Fl_Positioner@@IAEHHHHHH@Z
?handle@Fl_Positioner@@UAEHH@Z
?pushed@Fl@@SAPAVFl_Widget@@XZ
?selection_color@Fl_Widget@@QBEIXZ
?set_changed@Fl_Widget@@QAEXXZ
?style@Fl_Widget@@QAEHAAUFl_Style@@@Z
?value@Fl_Positioner@@QAEHNN@Z
?w@Fl_Widget@@QBEHXZ
?when@Fl_Widget@@QAEXE@Z
?when@Fl_Widget@@QBE?AW4Fl_When@@XZ
?x@Fl_Widget@@QBEHXZ
?xbounds@Fl_Positioner@@QAEXNN@Z
?xvalue@Fl_Positioner@@QAEHN@Z
?xvalue@Fl_Positioner@@QBENXZ
?y@Fl_Widget@@QBEHXZ
?ybounds@Fl_Positioner@@QAEXNN@Z
?yvalue@Fl_Positioner@@QAEHN@Z
?yvalue@Fl_Positioner@@QBENXZ
?measure@Fl_PNG_Image@@UAEXAAH0@Z
?read@Fl_PNG_Image@@EAEXXZ
?test@Fl_PNG_Image@@SAHPAEI@Z
?draw@Fl_Pixmap@@UAEXHHHHHH@Z
?measure@Fl_Pixmap@@UAEXAAH0@Z
??0Fl_Pack@@QAE@HHHHPBD@Z
??1Fl_Pack@@UAE@XZ
??_7Fl_Pack@@6B@
?array@Fl_Group@@QBEPBQAVFl_Widget@@XZ
?box@Fl_Widget@@QBEPBUFl_Boxtype_@@XZ
?children@Fl_Group@@QBEHXZ
?clear_damage@Fl_Widget@@QAEXE@Z
?color@Fl_Widget@@QBEIXZ
?damage@Fl_Widget@@QBEEXZ
?dh@Fl_Boxtype_@@QBEHXZ
?draw@Fl_Pack@@UAEXXZ
?dw@Fl_Boxtype_@@QBEHXZ
?dx@Fl_Boxtype_@@QBEHXZ
?dy@Fl_Boxtype_@@QBEHXZ
?h@Fl_Widget@@QBEHXZ
?horizontal@Fl_Pack@@QBEEXZ
?resizable@Fl_Group@@QAEXPAVFl_Widget@@@Z
?type@Fl_Widget@@QBEEXZ
?visible@Fl_Widget@@QBEHXZ
?w@Fl_Widget@@QBEHXZ
?x@Fl_Widget@@QBEHXZ
?y@Fl_Widget@@QBEHXZ
?own_colormap@Fl@@SAXXZ
?can_do_overlay@Fl_Overlay_Window@@QAEHXZ
?clear_damage@Fl_Widget@@QAEXE@Z
?damage@Fl@@SAXH@Z
?damage@Fl_Widget@@QBEEXZ
?flush@Fl_Overlay_Window@@MAEXXZ
?h@Fl_Widget@@QBEHXZ
?layout@Fl_Overlay_Window@@UAEXXZ
?redraw_overlay@Fl_Overlay_Window@@QAEXXZ
?w@Fl_Widget@@QBEHXZ
?fl_overlay_clear@@YAXXZ
?fl_overlay_rect@@YAXHHHH@Z
?fl_oval_box@@3UFl_Boxtype_@@B
?fl_oval_flat_box@@3UFl_Boxtype_@@B
?fl_oval_shadow_box@@3UFl_Boxtype_@@B
??0Fl_Output@@QAE@HHHHPBD@Z
??1Fl_Input@@UAE@XZ
??1Fl_Output@@UAE@XZ
??_7Fl_Output@@6B@
?box@Fl_Widget@@QBEPBUFl_Boxtype_@@XZ
?damage@Fl_Widget@@QBEEXZ
?default_style@Fl_Output@@2UFl_Style@@A
?dh@Fl_Boxtype_@@QBEHXZ
?draw@Fl_Output@@MAEXXZ
?dw@Fl_Boxtype_@@QBEHXZ
?dx@Fl_Boxtype_@@QBEHXZ
?dy@Fl_Boxtype_@@QBEHXZ
?fl_init_input_style@@3VFl_Input@@A
?fl_init_output_style@@3VFl_Output@@A
?fl_output_style_definer@@3VFl_Style_Definer@@A
?h@Fl_Widget@@QBEHXZ
?handle@Fl_Output@@UAEHH@Z
?w@Fl_Widget@@QBEHXZ
?x@Fl_Widget@@QBEHXZ
?y@Fl_Widget@@QBEHXZ
??1Fl_Menu_Window@@UAE@XZ
??1Fl_Single_Window@@UAE@XZ
??_7Fl_Menu_Window@@6B@
?create@Fl_Menu_Window@@MAEXXZ
?destroy@Fl_Menu_Window@@MAEXXZ
?erase@Fl_Menu_Window@@QAEXXZ
?flush@Fl_Menu_Window@@MAEXXZ
?global@Fl_Menu_@@QAEXXZ
?modal@Fl@@SAPAVFl_Window@@XZ
??0Fl_Menu_Button@@QAE@HHHHPBD@Z
??1Fl_Menu_Button@@UAE@XZ
??_7Fl_Menu_Button@@6B@
?box@Fl_Widget@@QAEXPBUFl_Boxtype_@@@Z
?box@Fl_Widget@@QBEPBUFl_Boxtype_@@XZ
?draw@Fl_Menu_Button@@MAEXXZ
?event_button@Fl@@SAHXZ
?event_x@Fl@@SAHXZ
?event_y@Fl@@SAHXZ
?h@Fl_Widget@@QBEHXZ
?handle@Fl_Menu_Button@@UAEHH@Z
?highlight_color@Fl_Widget@@QBEIXZ
?label@Fl_Widget@@QBEPBDXZ
?labelsize@Fl_Widget@@QBEIXZ
?menu@Fl_Menu_@@QBEPAUFl_Menu_Item@@XZ
?mvalue@Fl_Menu_@@QBEPBUFl_Menu_Item@@XZ
?popup@Fl_Menu_Button@@QAEPBUFl_Menu_Item@@XZ
?test_shortcut@Fl_Menu_@@QAEPBUFl_Menu_Item@@XZ
?type@Fl_Widget@@QAEXE@Z
?type@Fl_Widget@@QBEEXZ
?w@Fl_Widget@@QBEHXZ
?x@Fl_Widget@@QBEHXZ
?y@Fl_Widget@@QBEHXZ
?draw@Fl_Menu_Bar@@MAEXXZ
?h@Fl_Widget@@QBEHXZ
?handle@Fl_Menu_Bar@@MAEHH@Z
?menu@Fl_Menu_@@QBEPAUFl_Menu_Item@@XZ
?w@Fl_Widget@@QBEHXZ
?x@Fl_Widget@@QBEHXZ
?y@Fl_Widget@@QBEHXZ
?add@Fl_Menu_@@QAEHPBD@Z
?add@Fl_Menu_@@QAEHPBDHP6AXPAVFl_Widget@@PAX@Z2H@Z
?add@Fl_Menu_Item@@QAEHPBDHP6AXPAVFl_Widget@@PAX@Z2H@Z
?flags@Fl_Menu_Item@@QBEIXZ
?next@Fl_Menu_Item@@QAEPAU1@H@Z
?remove@Fl_Menu_@@QAEXH@Z
?replace@Fl_Menu_@@QAEXHPBD@Z
??0Fl_Menu_@@QAE@HHHHPBD@Z
??1Fl_Menu_@@UAE@XZ
??_7Fl_Menu_@@6B@
?changed@Fl_Widget@@QBEHXZ
?clear@Fl_Menu_@@QAEXXZ
?clear@Fl_Menu_Item@@QAEXXZ
?clear_changed@Fl_Widget@@QAEXXZ
?copy@Fl_Menu_@@QAEXPBUFl_Menu_Item@@PAX@Z
?do_callback@Fl_Menu_Item@@QBEXPAVFl_Widget@@@Z
?do_callback@Fl_Widget@@QAEXXZ
?find@Fl_Menu_@@QBEPAUFl_Menu_Item@@PBD@Z
?fl_menu_array_owner@@3PAVFl_Menu_@@A
?flags@Fl_Menu_Item@@QBEIXZ
?label@Fl_Menu_Item@@QBEPBDXZ
?menu@Fl_Menu_@@QAEXPBUFl_Menu_Item@@@Z
?menu@Fl_Menu_@@QBEPAUFl_Menu_Item@@XZ
?next@Fl_Menu_Item@@QAEPAU1@H@Z
?picked@Fl_Menu_@@QAEPBUFl_Menu_Item@@PBU2@@Z
?pushed@Fl@@SAPAVFl_Widget@@XZ
?radio@Fl_Menu_Item@@QBEHXZ
?set_changed@Fl_Widget@@QAEXXZ
?set_flag@Fl_Widget@@IAEXI@Z
?setonly@Fl_Menu_Item@@QAEXXZ
?size@Fl_Menu_@@QBEHXZ
?user_data@Fl_Menu_Item@@QBEPAXXZ
?value@Fl_Menu_@@QAEHPBUFl_Menu_Item@@@Z
?value@Fl_Menu_Item@@QBEHXZ
?when@Fl_Widget@@QAEXE@Z
?when@Fl_Widget@@QBE?AW4Fl_When@@XZ
??0Fl_Menu_Window@@QAE@HHHHPBD@Z
??0Fl_Single_Window@@QAE@HHHHPBD@Z
??0menutitle@@QAE@HHHHPBUFl_Menu_Item@@@Z
??0menuwindow@@QAE@PBUFl_Menu_Item@@HHHH00HH@Z
??1Fl_Single_Window@@UAE@XZ
??1menutitle@@UAE@XZ
??1menuwindow@@UAE@XZ
??_7Fl_Menu_Window@@6B@
??_7Fl_Single_Window@@6B@
??_7menutitle@@6B@
??_7menuwindow@@6B@
?activevisible@Fl_Menu_Item@@QBEHXZ
?autoscroll@menuwindow@@QAEXH@Z
?box@Fl_Widget@@QAEXPBUFl_Boxtype_@@@Z
?box@Fl_Widget@@QBEPBUFl_Boxtype_@@XZ
?clear_border@Fl_Window@@QAEXXZ
?clear_overlay@Fl_Menu_Window@@QAEXXZ
?color@Fl_Widget@@QBEIXZ
?current@Fl_Group@@SAXPAV1@@Z
?damage@Fl_Widget@@QBEEXZ
?default_style@Fl_Menu_Item@@2UFl_Style@@A
?dh@Fl_Boxtype_@@QBEHXZ
?draw@Fl_Boxtype_@@QBEXHHHHII@Z
?draw@Fl_Labeltype_@@QBEXPBDHHHHII@Z
?draw@Fl_Menu_Item@@QBEXHHHHPBVFl_Menu_@@H@Z
?draw@menutitle@@EAEXXZ
?draw@menuwindow@@EAEXXZ
?drawentry@menuwindow@@AAEXPBUFl_Menu_Item@@HH@Z
?dw@Fl_Boxtype_@@QBEHXZ
?dx@Fl_Boxtype_@@QBEHXZ
?dy@Fl_Boxtype_@@QBEHXZ
?end@Fl_Group@@QAEXXZ
?event_is_click@Fl@@SAHXZ
?event_key@Fl@@SAHXZ
?event_state@Fl@@SAHXZ
?event_x@Fl@@SAHXZ
?event_x_root@Fl@@SAHXZ
?event_y@Fl@@SAHXZ
?event_y_root@Fl@@SAHXZ
?find_selected@menuwindow@@QAEHHH@Z
?find_shortcut@Fl_Menu_Item@@QBEPBU1@PAH@Z
?fl_menu_item_style_definer@@3VFl_Style_Definer@@A
?fl_menu_title_style_definer@@3VFl_Style_Definer@@A
?flags@Fl_Menu_Item@@QBEIXZ
?grab@Fl@@SAXAAVFl_Window@@@Z
?h@Fl_Widget@@IAEXH@Z
?h@Fl_Widget@@QBEHXZ
?handle@menuwindow@@UAEHH@Z
?item@menustate@@QAEPBUFl_Menu_Item@@XZ
?label@Fl_Menu_Item@@QBEPBDXZ
?label_font@Fl_Widget@@QBEPBUFl_Font_@@XZ
?label_size@Fl_Widget@@QBEIXZ
?measure@Fl_Menu_Item@@QBEHPAHPBVFl_Menu_@@@Z
?next@Fl_Menu_Item@@QBEPBU1@H@Z
?parent@Fl_Widget@@QBEPAVFl_Group@@XZ
?popup@Fl_Menu_Item@@QBEPBU1@HHPBDPBU1@PBVFl_Menu_@@@Z
?position@Fl_Widget@@QAEXHH@Z
?position@menuwindow@@QAEXHH@Z
?pulldown@Fl_Menu_Item@@QBEPBU1@HHHHPBU1@PBVFl_Menu_@@0H@Z
?pushed@Fl@@SAPAVFl_Widget@@XZ
?release@Fl@@SAXXZ
?set_flag@Fl_Widget@@IAEXI@Z
?set_modal@Fl_Window@@QAEXXZ
?seti@Fl_Menu_Item@@QAEXPBII@Z
?setp@Fl_Menu_Item@@QAEXPBQBXPBX@Z
?size@Fl_Menu_Item@@QBEHXZ
?style@Fl_Menu_Item@@QBEPBUFl_Style@@H@Z
?style@Fl_Widget@@QBEPBUFl_Style@@XZ
?submenu@Fl_Menu_Item@@QBEHXZ
?test_shortcut@Fl_Menu_Item@@QBEPBU1@XZ
?title_style@Fl_Menu_Item@@2UFl_Style@@A
?titlex@menuwindow@@QAEHH@Z
?visible@Fl_Menu_Item@@QBEHXZ
?w@Fl_Widget@@IAEXH@Z
?w@Fl_Widget@@QBEHXZ
?x@Fl_Widget@@IAEXH@Z
?x@Fl_Widget@@QBEHXZ
?y@Fl_Widget@@IAEXH@Z
?y@Fl_Widget@@QBEHXZ
?ypos@menuwindow@@QAEHH@Z
??0Fl_Light_Button@@QAE@HHHHPBD@Z
??1Fl_Button@@UAE@XZ
??1Fl_Light_Button@@UAE@XZ
??_7Fl_Light_Button@@6B@
?belowmouse@Fl@@SAPAVFl_Widget@@XZ
?box@Fl_Widget@@QBEPBUFl_Boxtype_@@XZ
?color@Fl_Widget@@QBEIXZ
?default_style@Fl_Light_Button@@2UFl_Style@@A
?draw@Fl_Boxtype_@@QBEXHHHHII@Z
?draw@Fl_Light_Button@@MAEXXZ
?fl_lightbutton_style_definer@@3VFl_Style_Definer@@A
?flags@Fl_Widget@@QBEIXZ
?h@Fl_Widget@@QBEHXZ
?handle@Fl_Light_Button@@UAEHH@Z
?highlight_color@Fl_Widget@@QBEIXZ
?highlight_label_color@Fl_Widget@@QBEIXZ
?label_color@Fl_Widget@@QBEIXZ
?off_color@Fl_Widget@@QBEIXZ
?on_color@Fl_Widget@@QBEIXZ
?pushed@Fl@@SAPAVFl_Widget@@XZ
?set_flag@Fl_Widget@@IAEXI@Z
?style@Fl_Widget@@QAEHAAUFl_Style@@@Z
?type@Fl_Widget@@QAEXE@Z
?w@Fl_Widget@@QBEHXZ
?x@Fl_Widget@@QBEHXZ
?y@Fl_Widget@@QBEHXZ
?box@Fl_Widget@@QBEPBUFl_Boxtype_@@XZ
?dh@Fl_Boxtype_@@QBEHXZ
?draw@Fl_Labeltype_@@QBEXPBDHHHHII@Z
?draw_button_label@Fl_Widget@@IBEXHHHHI@Z
?draw_label@Fl_Widget@@IBEXI@Z
?draw_label@Fl_Widget@@IBEXXZ
?draw_label@Fl_Widget@@QBEXHHHHI@Z
?draw_label@Fl_Widget@@QBEXHHHHII@Z
?dw@Fl_Boxtype_@@QBEHXZ
?dx@Fl_Boxtype_@@QBEHXZ
?dy@Fl_Boxtype_@@QBEHXZ
?fl_no_label@@3UFl_Labeltype_@@A
?fl_no_label_draw@@YAXPBUFl_Labeltype_@@PBDHHHHII@Z
?fl_normal_label@@3UFl_Labeltype_@@A
?fl_normal_label_draw@@YAXPBUFl_Labeltype_@@PBDHHHHII@Z
?flags@Fl_Widget@@QBEIXZ
?label@Fl_Widget@@QBEPBDXZ
?label_font@Fl_Widget@@QBEPBUFl_Font_@@XZ
?label_size@Fl_Widget@@QBEIXZ
?label_type@Fl_Widget@@QBEPBUFl_Labeltype_@@XZ
?labelcolor@Fl_Widget@@QBEIXZ
?measure_label@Fl_Widget@@QBEXAAH0@Z
?measure@Fl_JPEG_Image@@UAEXAAH0@Z
?read@Fl_JPEG_Image@@EAEXXZ
?test@Fl_JPEG_Image@@SAHPAEI@Z
??0Fl_Input_@@QAE@HHHHPBD@Z
??1Fl_Input_@@UAE@XZ
??_7Fl_Input_@@6B@
?align@Fl_Widget@@QAEXI@Z
?changed@Fl_Widget@@QBEHXZ
?clear_changed@Fl_Widget@@QAEXXZ
?color@Fl_Widget@@QBEIXZ
?copy@Fl_Input_@@QAEHXZ
?copy_cuts@Fl_Input_@@QAEHXZ
?cursor_color@Fl_Widget@@QBEIXZ
?damage@Fl_Widget@@QBEEXZ
?do_callback@Fl_Widget@@QAEXXZ
?drawtext@Fl_Input_@@IAEXHHHH@Z
?event_clicks@Fl@@SAHXZ
?event_length@Fl@@SAHXZ
?event_state@Fl@@SAHH@Z
?event_text@Fl@@SAPBDXZ
?event_x@Fl@@SAHXZ
?event_y@Fl@@SAHXZ
?expand@Fl_Input_@@ABEPBDPBDPAD@Z
?expandpos@Fl_Input_@@ABENPBD00PAH@Z
?focus@Fl@@SAPAVFl_Widget@@XZ
?handle_mouse@Fl_Input_@@IAEXHHHHH@Z
?handletext@Fl_Input_@@IAEHHHHHH@Z
?index@Fl_Input_@@QBEDH@Z
?layout@Fl_Input_@@MAEXXZ
?lineboundary@Fl_Input_@@IBEHH@Z
?mark@Fl_Input_@@QBEHXZ
?maybe_do_callback@Fl_Input_@@IAEXXZ
?minimal_update@Fl_Input_@@AAEXH@Z
?minimal_update@Fl_Input_@@AAEXHH@Z
?position@Fl_Input_@@QAEHHH@Z
?position@Fl_Input_@@QBEHXZ
?pushed@Fl@@SAPAVFl_Widget@@XZ
?put_in_buffer@Fl_Input_@@AAEXH@Z
?replace@Fl_Input_@@QAEHHHPBDH@Z
?selection_color@Fl_Widget@@QBEIXZ
?selection_owner@Fl@@SAPAVFl_Widget@@XZ
?selection_text_color@Fl_Widget@@QBEIXZ
?set_changed@Fl_Widget@@QAEXXZ
?setfont@Fl_Input_@@ABEXXZ
?size@Fl_Input_@@QBEHXZ
?static_value@Fl_Input_@@QAEHPBD@Z
?static_value@Fl_Input_@@QAEHPBDH@Z
?style@Fl_Widget@@QAEHAAUFl_Style@@@Z
?text_color@Fl_Widget@@QBEIXZ
?textfont@Fl_Widget@@QBEPBUFl_Font_@@XZ
?textsize@Fl_Widget@@QBEIXZ
?type@Fl_Widget@@QBEEXZ
?undo@Fl_Input_@@QAEHXZ
?up_down_position@Fl_Input_@@IAEHHH@Z
?value@Fl_Input_@@QAEHPBD@Z
?value@Fl_Input_@@QAEHPBDH@Z
?value@Fl_Input_@@QBEPBDXZ
?when@Fl_Widget@@QBE?AW4Fl_When@@XZ
?wordboundary@Fl_Input_@@IBEHH@Z
??0Fl_Input@@QAE@HHHHPBD@Z
??1Fl_Input@@UAE@XZ
??_7Fl_Input@@6B@
?box@Fl_Widget@@QBEPBUFl_Boxtype_@@XZ
?cut@Fl_Input_@@QAEHH@Z
?cut@Fl_Input_@@QAEHHH@Z
?cut@Fl_Input_@@QAEHXZ
?damage@Fl_Widget@@QBEEXZ
?default_style@Fl_Input@@2UFl_Style@@A
?dh@Fl_Boxtype_@@QBEHXZ
?draw@Fl_Input@@UAEXXZ
?dw@Fl_Boxtype_@@QBEHXZ
?dx@Fl_Boxtype_@@QBEHXZ
?dy@Fl_Boxtype_@@QBEHXZ
?event_button@Fl@@SAHXZ
?event_key@Fl@@SAHXZ
?event_length@Fl@@SAHXZ
?event_state@Fl@@SAHH@Z
?event_text@Fl@@SAPBDXZ
?fl_compose@@YAHHDAAHPAD0@Z
?fl_input_style_definer@@3VFl_Style_Definer@@A
?focus@Fl@@SAPAVFl_Widget@@XZ
?h@Fl_Widget@@QBEHXZ
?handle@Fl_Input@@UAEHH@Z
?handle_key@Fl_Input@@AAEHXZ
?index@Fl_Input_@@QBEDH@Z
?mark@Fl_Input_@@QBEHXZ
?position@Fl_Input_@@QAEHH@Z
?position@Fl_Input_@@QBEHXZ
?shift_position@Fl_Input@@AAEHH@Z
?shift_up_down_position@Fl_Input@@AAEHH@Z
?size@Fl_Input_@@QBEHXZ
?type@Fl_Widget@@QBEEXZ
?w@Fl_Widget@@QBEHXZ
?when@Fl_Widget@@QBE?AW4Fl_When@@XZ
?x@Fl_Widget@@QBEHXZ
?y@Fl_Widget@@QBEHXZ
??1Fl_Image@@UAE@XZ
??_7Fl_Image@@6B@
?_draw@Fl_Image@@IAEXHHHHHH@Z
?draw@Fl_Image@@QAEXHHHHI@Z
?draw_tiled@Fl_Image@@QAEXHHHHHH@Z
?image@Fl_Menu_Item@@QAEXPAVFl_Image@@@Z
?image@Fl_Widget@@QAEXPAVFl_Image@@@Z
?label@Fl_Image@@QAEXPAUFl_Menu_Item@@@Z
?label@Fl_Image@@QAEXPAVFl_Widget@@@Z
?label@Fl_Menu_Item@@QAEXPBD@Z
?label@Fl_Widget@@QAEXPBD@Z
?measure@Fl_Image@@UAEXAAH0@Z
??0Fl_BMP_Image@@AAE@XZ
??0Fl_GIF_Image@@AAE@XZ
??0Fl_Image@@QAE@XZ
??0Fl_JPEG_Image@@AAE@XZ
??0Fl_PNG_Image@@AAE@XZ
??0Fl_Shared_Image@@IAE@XZ
??0Fl_XPM_Image@@AAE@XZ
??1Fl_BMP_Image@@UAE@XZ
??1Fl_GIF_Image@@UAE@XZ
??1Fl_JPEG_Image@@UAE@XZ
??1Fl_PNG_Image@@UAE@XZ
??1Fl_XPM_Image@@UAE@XZ
??_7Fl_BMP_Image@@6B@
??_7Fl_GIF_Image@@6B@
??_7Fl_Image@@6B@
??_7Fl_JPEG_Image@@6B@
??_7Fl_PNG_Image@@6B@
??_7Fl_Shared_Image@@6B@
??_7Fl_XPM_Image@@6B@
?create@Fl_BMP_Image@@CAPAVFl_Shared_Image@@XZ
?create@Fl_GIF_Image@@CAPAVFl_Shared_Image@@XZ
?create@Fl_JPEG_Image@@CAPAVFl_Shared_Image@@XZ
?create@Fl_PNG_Image@@CAPAVFl_Shared_Image@@XZ
?create@Fl_XPM_Image@@CAPAVFl_Shared_Image@@XZ
?fl_image_filetypes@@3PAVFl_Image_Type@@A
?get@Fl_BMP_Image@@SAPAVFl_Shared_Image@@PADPAE@Z
?get@Fl_GIF_Image@@SAPAVFl_Shared_Image@@PADPAE@Z
?get@Fl_JPEG_Image@@SAPAVFl_Shared_Image@@PADPAE@Z
?get@Fl_PNG_Image@@SAPAVFl_Shared_Image@@PADPAE@Z
?get@Fl_UNKNOWN_Image@@SAPAVFl_Shared_Image@@PADPAE@Z
?get@Fl_XPM_Image@@SAPAVFl_Shared_Image@@PADPAE@Z
?guess@Fl_Shared_Image@@SAPAVFl_Image_Type@@PADPAE@Z
?test@Fl_UNKNOWN_Image@@SAHPAEI@Z
??0Fl_Group@@QAE@HHHHPBD@Z
??1Fl_Group@@UAE@XZ
??_7Fl_Group@@6B@
?active@Fl_Widget@@QBEHXZ
?add@Fl_Group@@QAEXAAVFl_Widget@@@Z
?align@Fl_Widget@@QAEXI@Z
?align@Fl_Widget@@QBEIXZ
?array@Fl_Group@@QBEPBQAVFl_Widget@@XZ
?begin@Fl_Group@@QAEXXZ
?belowmouse@Fl@@SAPAVFl_Widget@@XZ
?box@Fl_Widget@@QBEPBUFl_Boxtype_@@XZ
?children@Fl_Group@@QBEHXZ
?clear@Fl_Group@@QAEXXZ
?clear_damage@Fl_Widget@@QAEXE@Z
?current_@Fl_Group@@0PAV1@A
?damage@Fl_Widget@@QBEEXZ
?draw@Fl_Group@@UAEXXZ
?draw_child@Fl_Group@@IBEXAAVFl_Widget@@@Z
?draw_outside_label@Fl_Group@@IBEXAAVFl_Widget@@@Z
?enter@Fl_Tooltip@@SAXPAVFl_Widget@@@Z
?event_key@Fl@@SAHXZ
?event_state@Fl@@SAHH@Z
?event_text@Fl@@SAPBDXZ
?exit@Fl_Tooltip@@SAXPAVFl_Widget@@@Z
?find@Fl_Group@@QBEHABVFl_Widget@@@Z
?find@Fl_Group@@QBEHPBVFl_Widget@@@Z
?fl_group_style_definer@@3VFl_Style_Definer@@A
?flags@Fl_Widget@@QBEIXZ
?focus@Fl@@SAPAVFl_Widget@@XZ
?h@Fl_Widget@@QBEHXZ
?handle@Fl_Group@@UAEHH@Z
?init_sizes@Fl_Group@@QAEXXZ
?insert@Fl_Group@@QAEXAAVFl_Widget@@H@Z
?layout@Fl_Group@@UAEXXZ
?navigation@Fl_Group@@AAEHH@Z
?oh@Fl_Group@@IBEHXZ
?ow@Fl_Group@@IBEHXZ
?ox@Fl_Group@@IBEHXZ
?oy@Fl_Group@@IBEHXZ
?parent@Fl_Widget@@QBEPAVFl_Group@@XZ
?pushed@Fl@@SAPAVFl_Widget@@XZ
?remove@Fl_Group@@QAEXAAVFl_Widget@@@Z
?resizable@Fl_Group@@QBEPAVFl_Widget@@XZ
?set_old_size@Fl_Group@@IAEXXZ
?sizes@Fl_Group@@IAEPAHXZ
?style@Fl_Widget@@QAEHAAUFl_Style@@@Z
?takesevents@Fl_Widget@@QBEHXZ
?type@Fl_Widget@@QBEEXZ
?update_child@Fl_Group@@IBEXAAVFl_Widget@@@Z
?visible@Fl_Widget@@QBEHXZ
?w@Fl_Widget@@QBEHXZ
?x@Fl_Widget@@QBEHXZ
?y@Fl_Widget@@QBEHXZ
?fl_xid@@YAPAXPBVFl_Window@@@Z
?grab@Fl@@SAXPAVFl_Window@@@Z
?i@Fl_X@@SAPAV1@PBVFl_Window@@@Z
?dh@Fl_Boxtype_@@QBEHXZ
?draw@Fl_Boxtype_@@QBEXHHHHII@Z
?dx@Fl_Boxtype_@@QBEHXZ
?fl_glyph@@YAXHHHHHII@Z
??1Fl_Gl_Window@@UAE@XZ
??_7Fl_Gl_Window@@6B@
?can_do@Fl_Gl_Window@@CAHHPBH@Z
?clear_damage@Fl_Widget@@QAEXE@Z
?create@Fl_Gl_Window@@MAEXXZ
?damage@Fl_Widget@@QBEEXZ
?destroy@Fl_Gl_Window@@MAEXXZ
?draw_overlay@Fl_Gl_Window@@UAEXXZ
?end@Fl_Group@@QAEXXZ
?fl_xid@@YAPAXPBVFl_Window@@@Z
?flush@Fl_Gl_Window@@MAEXXZ
?h@Fl_Widget@@QBEHXZ
?i@Fl_X@@SAPAV1@PBVFl_Window@@@Z
?init@Fl_Gl_Window@@AAEXXZ
?invalidate@Fl_Gl_Window@@QAEXXZ
?layout@Fl_Gl_Window@@UAEXXZ
?make_current@Fl_Gl_Window@@QAEXXZ
?mode@Fl_Gl_Window@@AAEHHPBH@Z
?oh@Fl_Group@@IBEHXZ
?ortho@Fl_Gl_Window@@QAEXXZ
?ow@Fl_Group@@IBEHXZ
?parent@Fl_Widget@@QBEPAVFl_Group@@XZ
?shown@Fl_Window@@QBEHXZ
?swap_buffers@Fl_Gl_Window@@QAEXXZ
?valid@Fl_Gl_Window@@QAEXD@Z
?valid@Fl_Gl_Window@@QBEDXZ
?w@Fl_Widget@@QBEHXZ
?can_do_overlay@Fl_Gl_Window@@QAEHXZ
?hide_overlay@Fl_Gl_Window@@QAEXXZ
?make_overlay@Fl_Gl_Window@@AAEXXZ
?make_overlay_current@Fl_Gl_Window@@QAEXXZ
?redraw_overlay@Fl_Gl_Window@@QAEXXZ
?shown@Fl_Window@@QBEHXZ
?find@Fl_Gl_Choice@@SAPAV1@HPBH@Z
?fl_first_context@@3PAXA
?fl_no_gl_context@@YAXXZ
?fl_private_dc@@YAPAXPAVFl_Window@@PAVFl_Gl_Choice@@@Z
?fl_set_gl_context@@YAXPAVFl_Window@@PAX@Z
?i@Fl_X@@SAPAV1@PBVFl_Window@@@Z
?measure@Fl_GIF_Image@@UAEXAAH0@Z
?read@Fl_GIF_Image@@EAEXXZ
?test@Fl_GIF_Image@@SAHPAEI@Z
?fl_background@@YAXI@Z
?fl_foreground@@YAXI@Z
?fl_gray_ramp@@YAIH@Z
?fl_rgb@@YAIEEE@Z
?fl_rgb@@YAIPBD@Z
?fl_text_background@@YAXI@Z
?set_color@Fl_Style@@QAEXI@Z
?set_off_color@Fl_Style@@QAEXI@Z
?set_selection_color@Fl_Style@@QAEXI@Z
?set_selection_text_color@Fl_Style@@QAEXI@Z
?set_text_color@Fl_Style@@QAEXI@Z
?event_key@Fl@@SAHH@Z
?get_key@Fl@@SAHH@Z
??0Fl_FontSize@@QAE@PBDH@Z
??1Fl_FontSize@@QAE@XZ
?encoding@Fl@@2PBDB
?fl_RGB@@YAKXZ
?fl_descent@@YAHXZ
?fl_draw@@YAXPBDHH@Z
?fl_draw@@YAXPBDHHH@Z
?fl_encoding@@3PBDB
?fl_font@@YAXPAVFl_FontSize@@@Z
?fl_font@@YAXQBUFl_Font_@@I@Z
?fl_font@@YAXQBUFl_Font_@@IPBD@Z
?fl_font_@@3PAVFl_FontSize@@A
?fl_fonts@@3PAUFl_Font_@@A
?fl_height@@YAHXZ
?fl_width@@YANE@Z
?fl_width@@YANPBD@Z
?fl_width@@YANPBDH@Z
??0Fl_Fly_Button@@QAE@HHHHPBD@Z
??1Fl_Button@@UAE@XZ
??1Fl_Fly_Button@@UAE@XZ
??_7Fl_Fly_Button@@6B@
??0FCB@@QAE@HHHH@Z
??0FCW@@QAE@XZ
??1FCB@@UAE@XZ
??1FCW@@UAE@XZ
??1Fl_Browser_@@UAE@XZ
??1Fl_Input@@UAE@XZ
??1Fl_Scrollbar@@UAE@XZ
??1Fl_Slider@@UAE@XZ
??1Fl_Valuator@@UAE@XZ
??_7FCB@@6B@
??_7FCW@@6B@
?begin@Fl_Group@@QAEXXZ
?callback@Fl_Widget@@QAEXP6AXPAV1@PAX@Z1@Z
?checkdir@FCB@@ABEHPBUdirent@@PAD@Z
?clear@FCB@@QAEXXZ
?clear_prev@FCB@@AAEXXZ
?do_callback@Fl_Widget@@QAEXXZ
?draw@FCB@@EAEXXZ
?end@Fl_Group@@QAEXXZ
?event_button@Fl@@SAHXZ
?event_clicks@Fl@@SAHXZ
?event_key@Fl@@SAHXZ
?fl_file_chooser@@YAPADPBD00@Z
?fl_file_chooser_button@@3PBDB
?fl_file_chooser_callback@@YAXP6AXPBD@Z@Z
?get@FCB@@QAEHPAD@Z
?h@Fl_Widget@@QBEHXZ
?handle@FCW@@UAEHH@Z
?incr_height@FCB@@EBEHXZ
?item_draw@FCB@@EBEXPAXHHHH@Z
?item_first@FCB@@EBEPAXXZ
?item_height@FCB@@ABEHPBUdirent@@H@Z
?item_height@FCB@@EBEHPAX@Z
?item_next@FCB@@EBEPAXPAX@Z
?item_prev@FCB@@EBEPAXPAX@Z
?item_quick_height@FCB@@EBEHPAX@Z
?item_width@FCB@@ABEHPBUdirent@@@Z
?item_width@FCB@@EBEHPAX@Z
?label@Fl_Widget@@QAEXPBD@Z
?label@Fl_Widget@@QBEPBDXZ
?parent@Fl_Widget@@QBEPAVFl_Group@@XZ
?position@Fl_Input_@@QAEHH@Z
?resizable@Fl_Group@@QAEXPAVFl_Widget@@@Z
?selection@Fl_Browser_@@IBEPAXXZ
?selection_text_color@Fl_Widget@@QBEIXZ
?set@FCB@@QAEXPBD@Z
?set_flag@Fl_Widget@@IAEXI@Z
?set_modal@Fl_Window@@QAEXXZ
?shortcut@Fl_Button@@QAEXH@Z
?shortcut@Fl_Button@@QAEXPBD@Z
?size@Fl_Input_@@QBEHXZ
?text_color@Fl_Widget@@QBEIXZ
?text_font@Fl_Widget@@QBEPBUFl_Font_@@XZ
?text_size@Fl_Widget@@QBEIXZ
?textfont@Fl_Widget@@QBEPBUFl_Font_@@XZ
?textsize@Fl_Widget@@QBEIXZ
?type@Fl_Widget@@QAEXE@Z
?value@Fl_Input_@@QBEPBDXZ
?w@Fl_Widget@@QBEHXZ
?when@Fl_Widget@@QAEXE@Z
?x@Fl_Widget@@QBEHXZ
?y@Fl_Widget@@QBEHXZ
?fl_embossed_label@@3UFl_Labeltype_@@B
?fl_engraved_label@@3UFl_Labeltype_@@B
?fl_pattern_label@@YAXPBUFl_Labeltype_@@PBDHHHHII@Z
?fl_shadow_label@@3UFl_Labeltype_@@B
?fl_draw_pixmap@@YAHPBQBDHHI@Z
?fl_mask_bitmap@@3PAPAEA
?fl_measure_pixmap@@YAHPBQBDAAH1@Z
?fl_draw_image@@YAXP6AXPAXHHHPAE@Z0HHHHH@Z
?fl_draw_image@@YAXPBEHHHHHH@Z
?fl_draw_image_mono@@YAXP6AXPAXHHHPAE@Z0HHHHH@Z
?fl_draw_image_mono@@YAXPBEHHHHHH@Z
?fl_rectf@@YAXHHHHI@Z
?fl_draw@@YAXPBDHHHHI@Z
?fl_draw@@YAXPBDHHHHIP6AX0HHH@Z@Z
?fl_draw_shortcut@@3DA
?fl_measure@@YAXPBDAAH1@Z
??1Fl_Double_Window@@UAE@XZ
??_7Fl_Double_Window@@6B@
?clear_damage@Fl_Widget@@QAEXE@Z
?create@Fl_Double_Window@@MAEXXZ
?damage@Fl_Widget@@QBEEXZ
?destroy@Fl_Double_Window@@MAEXXZ
?fl_copy_offscreen@@YAXHHHHPAXHH@Z
?fl_makeDC@@YAPAXPAX@Z
?flush@Fl_Double_Window@@IAEXH@Z
?flush@Fl_Double_Window@@MAEXXZ
?h@Fl_Widget@@QBEHXZ
?i@Fl_X@@SAPAV1@PBVFl_Window@@@Z
?layout@Fl_Double_Window@@UAEXXZ
?maybe_free_backbuffer@Fl_Double_Window@@AAEXHH@Z
?oh@Fl_Group@@IBEHXZ
?ow@Fl_Group@@IBEHXZ
?w@Fl_Widget@@QBEHXZ
?display@Fl@@SAXPBD@Z
?dx@Fl_Boxtype_@@QBEHXZ
?fl_diamond_box@@3UFl_Boxtype_@@B
?fl_diamond_down_box@@3UFl_Boxtype_@@B
??0Fl_Dial@@QAE@HHHHPBD@Z
??1Fl_Dial@@UAE@XZ
??1Fl_Valuator@@UAE@XZ
??_7Fl_Dial@@6B@
?box@Fl_Widget@@QBEPBUFl_Boxtype_@@XZ
?color@Fl_Widget@@QBEIXZ
?damage@Fl_Widget@@QBEEXZ
?default_style@Fl_Dial@@2UFl_Style@@A
?dh@Fl_Boxtype_@@QBEHXZ
?draw@Fl_Dial@@IAEXHHHH@Z
?draw@Fl_Dial@@MAEXXZ
?dw@Fl_Boxtype_@@QBEHXZ
?dx@Fl_Boxtype_@@QBEHXZ
?dy@Fl_Boxtype_@@QBEHXZ
?event_x@Fl@@SAHXZ
?event_y@Fl@@SAHXZ
?fl_dial_style_definer@@3VFl_Style_Definer@@A
?h@Fl_Widget@@QBEHXZ
?handle@Fl_Dial@@IAEHHHHHH@Z
?handle@Fl_Dial@@UAEHH@Z
?handle_push@Fl_Valuator@@IAEXXZ
?maximum@Fl_Valuator@@QBENXZ
?minimum@Fl_Valuator@@QBENXZ
?off_color@Fl_Widget@@QBEIXZ
?pushed@Fl@@SAPAVFl_Widget@@XZ
?selection_color@Fl_Widget@@QBEIXZ
?style@Fl_Widget@@QAEHAAUFl_Style@@@Z
?type@Fl_Widget@@QBEEXZ
?value@Fl_Valuator@@QBENXZ
?w@Fl_Widget@@QBEHXZ
?x@Fl_Widget@@QBEHXZ
?y@Fl_Widget@@QBEHXZ
?fl_xid@@YAPAXPBVFl_Window@@@Z
?i@Fl_X@@SAPAV1@PBVFl_Window@@@Z
?paste@Fl@@SAXAAVFl_Widget@@@Z
?selection@Fl@@SAXAAVFl_Widget@@PBDH@Z
?selection_owner@Fl@@SAPAVFl_Widget@@XZ
?fl_curve@@YAXNNNNNNNN@Z
?cursor@Fl_Window@@QAEXW4Fl_Cursor@@II@Z
?fl_cursor@@YAXW4Fl_Cursor@@II@Z
??0Fl_Counter@@QAE@HHHHPBD@Z
??1Fl_Counter@@UAE@XZ
??1Fl_Valuator@@UAE@XZ
??_7Fl_Counter@@6B@
?align@Fl_Widget@@QAEXI@Z
?belowmouse@Fl@@SAPAVFl_Widget@@XZ
?bounds@Fl_Valuator@@QAEXNN@Z
?calc_mouseobj@Fl_Counter@@AAEHXZ
?damage@Fl_Widget@@QBEEXZ
?draw@Fl_Boxtype_@@QBEXHHHHII@Z
?draw@Fl_Counter@@MAEXXZ
?flags@Fl_Widget@@QBEIXZ
?h@Fl_Widget@@QBEHXZ
?handle@Fl_Counter@@UAEHH@Z
?handle_push@Fl_Valuator@@IAEXXZ
?highlight_color@Fl_Widget@@QBEIXZ
?increment_cb@Fl_Counter@@AAEXXZ
?off_color@Fl_Widget@@QBEIXZ
?pushed@Fl@@SAPAVFl_Widget@@XZ
?repeat_callback@Fl_Counter@@CAXPAX@Z
?step@Fl_Valuator@@QAEXN@Z
?step@Fl_Valuator@@QAEXNH@Z
?textcolor@Fl_Widget@@QBEIXZ
?textfont@Fl_Widget@@QBEPBUFl_Font_@@XZ
?textsize@Fl_Widget@@QBEIXZ
?type@Fl_Widget@@QBEEXZ
?value@Fl_Valuator@@QBENXZ
?w@Fl_Widget@@QBEHXZ
?x@Fl_Widget@@QBEHXZ
?y@Fl_Widget@@QBEHXZ
??0CellBox@@QAE@HHHH@Z
??0Fl_Color_Chooser@@QAE@HHHHPBD@Z
??0Flcc_HueBox@@QAE@HHHH@Z
??0Flcc_ValueBox@@QAE@HHHH@Z
??0Flcc_Value_Input@@QAE@HHHH@Z
??1CellBox@@UAE@XZ
??1Fl_Box@@UAE@XZ
??1Fl_Choice@@UAE@XZ
??1Fl_Color_Chooser@@UAE@XZ
??1Flcc_HueBox@@UAE@XZ
??1Flcc_ValueBox@@UAE@XZ
??1Flcc_Value_Input@@UAE@XZ
??_7CellBox@@6B@
??_7Fl_Color_Chooser@@6B@
??_7Flcc_HueBox@@6B@
??_7Flcc_ValueBox@@6B@
??_7Flcc_Value_Input@@6B@
?b@Fl_Color_Chooser@@QBENXZ
?box@Fl_Widget@@QAEXPBUFl_Boxtype_@@@Z
?box@Fl_Widget@@QBEPBUFl_Boxtype_@@XZ
?callback@Fl_Widget@@QAEXP6AXPAV1@PAX@Z@Z
?color@Fl_Widget@@QAEXI@Z
?damage@Fl_Widget@@QBEEXZ
?dh@Fl_Boxtype_@@QBEHXZ
?do_callback@Fl_Widget@@QAEXXZ
?draw@CellBox@@UAEXXZ
?draw@Fl_Boxtype_@@QBEXHHHHII@Z
?draw@Flcc_HueBox@@EAEXXZ
?draw@Flcc_ValueBox@@EAEXXZ
?dw@Fl_Boxtype_@@QBEHXZ
?dx@Fl_Boxtype_@@QBEHXZ
?dy@Fl_Boxtype_@@QBEHXZ
?end@Fl_Group@@QAEXXZ
?event_button@Fl@@SAHXZ
?event_state@Fl@@SAHH@Z
?event_x@Fl@@SAHXZ
?event_y@Fl@@SAHXZ
?fl_color_cells@@3PAIA
?fl_color_chooser@@YAHPBDAAE11@Z
?fl_color_chooser@@YAHPBDAAI@Z
?fl_color_chooser@@YAHPBDAAN11@Z
?fl_rgb@@YAIEEE@Z
?format@Flcc_Value_Input@@UAEHPAD@Z
?g@Fl_Color_Chooser@@QBENXZ
?h@Fl_Color_Chooser@@QBENXZ
?h@Fl_Widget@@QBEHXZ
?handle@CellBox@@UAEHH@Z
?handle@Flcc_HueBox@@EAEHH@Z
?handle@Flcc_ValueBox@@EAEHH@Z
?hsv2rgb@Fl_Color_Chooser@@SAXNNNAAN00@Z
?hsv@Fl_Color_Chooser@@QAEHNNN@Z
?mode@Fl_Color_Chooser@@QAEHXZ
?mode_cb@Fl_Color_Chooser@@CAXPAVFl_Widget@@PAX@Z
?parent@Fl_Widget@@QBEPAVFl_Group@@XZ
?r@Fl_Color_Chooser@@QBENXZ
?range@Fl_Valuator@@QAEXNN@Z
?resizable@Fl_Group@@QAEXAAVFl_Widget@@@Z
?resizable@Fl_Group@@QAEXPAVFl_Widget@@@Z
?rgb2hsv@Fl_Color_Chooser@@SAXNNNAAN00@Z
?rgb@Fl_Color_Chooser@@QAEHNNN@Z
?rgb_cb@Fl_Color_Chooser@@CAXPAVFl_Widget@@PAX@Z
?s@Fl_Color_Chooser@@QBENXZ
?set_flag@Fl_Widget@@IAEXI@Z
?set_modal@Fl_Window@@QAEXXZ
?set_valuators@Fl_Color_Chooser@@AAEXXZ
?step@Fl_Valuator@@QAEXN@Z
?step@Fl_Valuator@@QAEXNH@Z
?v@Fl_Color_Chooser@@QBENXZ
?value@Fl_Choice@@QBEHXZ
?value@Fl_Color_Chooser@@QAEXI@Z
?value@Fl_Color_Chooser@@QBEIXZ
?value@Fl_Menu_@@QBEHXZ
?value@Fl_Valuator@@QBENXZ
?visible@Fl_Widget@@QBEHXZ
?w@Fl_Widget@@QBEHXZ
?x@Fl_Widget@@QBEHXZ
?y@Fl_Widget@@QBEHXZ
?fl_brush@@YAPAXXZ
?fl_color@@YAXI@Z
?fl_color_@@3IA
?fl_color_average@@YAIIIM@Z
?fl_color_cube@@YAIHHH@Z
?fl_contrast@@YAIII@Z
?fl_current_xmap@@3PAUFl_XMap@@A
?fl_free_color@@YAXI@Z
?fl_get_color@@YAII@Z
?fl_get_color@@YAXIAAE00@Z
?fl_gray_ramp@@YAIH@Z
?fl_inactive@@YAII@Z
?fl_palette@@3PAXA
?fl_rgb@@YAIEEE@Z
?fl_select_palette@@YAPAXXZ
?fl_set_color@@YAXII@Z
?fl_xmap@@3PAUFl_XMap@@A
?tmpbrush@@3PAXA
?tmppen@@3PAXA
??0Fl_Clock@@QAE@EHHHHPBD@Z
??0Fl_Clock@@QAE@HHHHPBD@Z
??0Fl_Clock_Output@@QAE@HHHHPBD@Z
??1Fl_Clock@@UAE@XZ
??1Fl_Clock_Output@@UAE@XZ
??_7Fl_Clock@@6B@
??_7Fl_Clock_Output@@6B@
?align@Fl_Widget@@QAEXI@Z
?color@Fl_Widget@@QBEIXZ
?draw@Fl_Clock_Output@@IAEXHHHH@Z
?draw@Fl_Clock_Output@@MAEXXZ
?drawhands@Fl_Clock_Output@@AAEXII@Z
?h@Fl_Widget@@QBEHXZ
?handle@Fl_Clock@@EAEHH@Z
?hour@Fl_Clock_Output@@QBEHXZ
?minute@Fl_Clock_Output@@QBEHXZ
?off_color@Fl_Widget@@QBEIXZ
?second@Fl_Clock_Output@@QBEHXZ
?selection_color@Fl_Widget@@QBEIXZ
?type@Fl_Widget@@QAEXE@Z
?type@Fl_Widget@@QBEEXZ
?value@Fl_Clock_Output@@QAEXHHH@Z
?value@Fl_Clock_Output@@QAEXK@Z
?w@Fl_Widget@@QBEHXZ
?x@Fl_Widget@@QBEHXZ
?y@Fl_Widget@@QBEHXZ
??0Fl_Choice@@QAE@HHHHPBD@Z
??1Fl_Choice@@UAE@XZ
??_7Fl_Choice@@6B@
?activate@Fl_Menu_Item@@QAEXXZ
?align@Fl_Widget@@QAEXI@Z
?box@Fl_Widget@@QBEPBUFl_Boxtype_@@XZ
?color@Fl_Widget@@QBEIXZ
?deactivate@Fl_Menu_Item@@QAEXXZ
?dh@Fl_Boxtype_@@QBEHXZ
?draw@Fl_Boxtype_@@QBEXHHHHII@Z
?draw@Fl_Choice@@MAEXXZ
?dw@Fl_Boxtype_@@QBEHXZ
?dx@Fl_Boxtype_@@QBEHXZ
?dy@Fl_Boxtype_@@QBEHXZ
?h@Fl_Widget@@QBEHXZ
?handle@Fl_Choice@@UAEHH@Z
?highlight_color@Fl_Widget@@QBEIXZ
?labelsize@Fl_Widget@@QBEIXZ
?menu@Fl_Menu_@@QBEPAUFl_Menu_Item@@XZ
?mvalue@Fl_Menu_@@QBEPBUFl_Menu_Item@@XZ
?submenu@Fl_Menu_Item@@QBEHXZ
?value@Fl_Choice@@QAEHH@Z
?value@Fl_Menu_@@QAEHH@Z
?w@Fl_Widget@@QBEHXZ
?when@Fl_Widget@@QAEXE@Z
?x@Fl_Widget@@QBEHXZ
?y@Fl_Widget@@QBEHXZ
??0Fl_Check_Button@@QAE@HHHHPBD@Z
??1Fl_Button@@UAE@XZ
??1Fl_Check_Button@@UAE@XZ
??_7Fl_Check_Button@@6B@
?belowmouse@Fl@@SAPAVFl_Widget@@XZ
?box@Fl_Widget@@QBEPBUFl_Boxtype_@@XZ
?color@Fl_Widget@@QBEIXZ
?default_style@Fl_Check_Button@@2UFl_Style@@A
?draw@Fl_Boxtype_@@QBEXHHHHII@Z
?draw@Fl_Check_Button@@MAEXXZ
?fl_checkbutton_style_definer@@3VFl_Style_Definer@@A
?flags@Fl_Widget@@QBEIXZ
?glyph@Fl_Widget@@QBEP6AXHHHHHII@ZXZ
?h@Fl_Widget@@QBEHXZ
?handle@Fl_Check_Button@@UAEHH@Z
?highlight_color@Fl_Widget@@QBEIXZ
?highlight_label_color@Fl_Widget@@QBEIXZ
?label_color@Fl_Widget@@QBEIXZ
?off_color@Fl_Widget@@QBEIXZ
?on_color@Fl_Widget@@QBEIXZ
?pushed@Fl@@SAPAVFl_Widget@@XZ
?set_flag@Fl_Widget@@IAEXI@Z
?style@Fl_Widget@@QAEHAAUFl_Style@@@Z
?type@Fl_Widget@@QAEXE@Z
?type@Fl_Widget@@QBEEXZ
?w@Fl_Widget@@QBEHXZ
?x@Fl_Widget@@QBEHXZ
?y@Fl_Widget@@QBEHXZ
??0Fl_Chart@@QAE@HHHHPBD@Z
??1Fl_Chart@@UAE@XZ
??_7Fl_Chart@@6B@
?add@Fl_Chart@@QAEXNPBDE@Z
?align@Fl_Widget@@QAEXI@Z
?autosize@Fl_Chart@@QBEEXZ
?bounds@Fl_Chart@@QAEXNN@Z
?clear@Fl_Chart@@QAEXXZ
?draw@Fl_Chart@@MAEXXZ
?h@Fl_Widget@@QBEHXZ
?insert@Fl_Chart@@QAEXHNPBDE@Z
?maxsize@Fl_Chart@@QAEXH@Z
?replace@Fl_Chart@@QAEXHNPBDE@Z
?style@Fl_Widget@@QAEHAAUFl_Style@@@Z
?textcolor@Fl_Widget@@QBEIXZ
?textfont@Fl_Widget@@QBEPBUFl_Font_@@XZ
?textsize@Fl_Widget@@QBEIXZ
?type@Fl_Widget@@QBEEXZ
?w@Fl_Widget@@QBEHXZ
?x@Fl_Widget@@QBEHXZ
?y@Fl_Widget@@QBEHXZ
??0Fl_Button@@QAE@HHHHPBD@Z
??1Fl_Button@@UAE@XZ
??_7Fl_Button@@6B@
?array@Fl_Group@@QBEPBQAVFl_Widget@@XZ
?box@Fl_Widget@@QAEXPBUFl_Boxtype_@@@Z
?children@Fl_Group@@QBEHXZ
?clear@Fl_Widget@@QAEHXZ
?clear_changed@Fl_Widget@@QAEXXZ
?clear_value@Fl_Widget@@QAEXXZ
?do_callback@Fl_Widget@@QAEXXZ
?draw@Fl_Button@@MAEXXZ
?handle@Fl_Button@@UAEHH@Z
?highlight_color@Fl_Widget@@QBEIXZ
?parent@Fl_Widget@@QBEPAVFl_Group@@XZ
?pushed@Fl@@SAPAVFl_Widget@@XZ
?set@Fl_Widget@@QAEHXZ
?set_changed@Fl_Widget@@QAEXXZ
?set_flag@Fl_Widget@@IAEXI@Z
?set_value@Fl_Widget@@QAEXXZ
?setonly@Fl_Widget@@QAEXXZ
?shortcut@Fl_Button@@QBEHXZ
?type@Fl_Widget@@QBEEXZ
?value@Fl_Widget@@QAEHH@Z
?value@Fl_Widget@@QBEHXZ
?when@Fl_Widget@@QBE?AW4Fl_When@@XZ
?load@Fl_Browser@@QAEHPBD@Z
??0Fl_Browser_@@IAE@HHHHPBD@Z
??1Fl_Browser_@@UAE@XZ
??1Fl_Scrollbar@@UAE@XZ
??1Fl_Slider@@UAE@XZ
??1Fl_Valuator@@UAE@XZ
??_7Fl_Browser_@@6B@
?align@Fl_Widget@@QAEXI@Z
?align@Fl_Widget@@QBEIXZ
?bbox@Fl_Browser_@@IBEXAAH000@Z
?box@Fl_Widget@@QBEPBUFl_Boxtype_@@XZ
?callback@Fl_Widget@@QAEXP6AXPAV1@PAX@Z@Z
?clear_damage@Fl_Widget@@QAEXE@Z
?clear_visible@Fl_Widget@@QAEXXZ
?color@Fl_Widget@@QBEIXZ
?damage@Fl_Widget@@QBEEXZ
?deleting@Fl_Browser_@@IAEXPAX@Z
?deselect@Fl_Browser_@@QAEHH@Z
?dh@Fl_Boxtype_@@QBEHXZ
?display@Fl_Browser_@@QAEXPAX@Z
?displayed@Fl_Browser_@@IBEHPAX@Z
?do_callback@Fl_Widget@@QAEXXZ
?draw@Fl_Browser_@@MAEXXZ
?dw@Fl_Boxtype_@@QBEHXZ
?dx@Fl_Boxtype_@@QBEHXZ
?dy@Fl_Boxtype_@@QBEHXZ
?end@Fl_Group@@QAEXXZ
?event_clicks@Fl@@SAXH@Z
?event_key@Fl@@SAHXZ
?event_state@Fl@@SAHH@Z
?event_x@Fl@@SAHXZ
?event_y@Fl@@SAHXZ
?find_item@Fl_Browser_@@IAEPAXH@Z
?full_height@Fl_Browser_@@MBEHXZ
?full_width@Fl_Browser_@@MBEHXZ
?h@Fl_Widget@@QBEHXZ
?handle@Fl_Browser_@@MAEHH@Z
?has_scrollbar@Fl_Browser_@@QAEXE@Z
?hposition@Fl_Browser_@@QAEXH@Z
?incr_height@Fl_Browser_@@MBEHXZ
?inserting@Fl_Browser_@@IAEXPAX0@Z
?item_quick_height@Fl_Browser_@@MBEHPAX@Z
?item_select@Fl_Browser_@@MAEXPAXH@Z
?item_selected@Fl_Browser_@@MBEHPAX@Z
?layout@Fl_Browser_@@MAEXXZ
?leftedge@Fl_Browser_@@IBEHXZ
?linesize@Fl_Scrollbar@@QAEXH@Z
?new_list@Fl_Browser_@@IAEXXZ
?parent@Fl_Widget@@QBEPAVFl_Group@@XZ
?position@Fl_Browser_@@QAEXH@Z
?pushed@Fl@@SAPAVFl_Widget@@XZ
?redraw_line@Fl_Browser_@@IAEXPAX@Z
?redraw_lines@Fl_Browser_@@IAEXXZ
?replacing@Fl_Browser_@@IAEXPAX0@Z
?scrollbar_width_@Fl_Browser_@@0HA
?select@Fl_Browser_@@QAEHPAXHH@Z
?select_only@Fl_Browser_@@QAEHPAXH@Z
?selection_color@Fl_Widget@@QBEIXZ
?selection_text_color@Fl_Widget@@QBEIXZ
?set_changed@Fl_Widget@@QAEXXZ
?set_visible@Fl_Widget@@QAEXXZ
?style@Fl_Widget@@QAEHAAUFl_Style@@@Z
?text_color@Fl_Widget@@QBEIXZ
?top@Fl_Browser_@@IBEPAXXZ
?type@Fl_Widget@@QAEXE@Z
?type@Fl_Widget@@QBEEXZ
?update_top@Fl_Browser_@@AAEXXZ
?value@Fl_Scrollbar@@QAEHXZ
?value@Fl_Valuator@@QBENXZ
?visible@Fl_Widget@@QBEHXZ
?w@Fl_Widget@@QBEHXZ
?when@Fl_Widget@@QAEXE@Z
?when@Fl_Widget@@QBE?AW4Fl_When@@XZ
?x@Fl_Widget@@QBEHXZ
?y@Fl_Widget@@QBEHXZ
??0Fl_Browser@@QAE@HHHHPBD@Z
??1Fl_Browser@@UAE@XZ
??1Fl_Browser_@@UAE@XZ
??1Fl_Scrollbar@@UAE@XZ
??1Fl_Slider@@UAE@XZ
??1Fl_Valuator@@UAE@XZ
??_7Fl_Browser@@6B@
?_remove@Fl_Browser@@AAEPAUFL_BLINE@@H@Z
?add@Fl_Browser@@QAEXPBDPAX@Z
?clear@Fl_Browser@@QAEXXZ
?column_char@Fl_Browser@@QBEDXZ
?column_widths@Fl_Browser@@QBEPBHXZ
?data@Fl_Browser@@QAEXHPAX@Z
?data@Fl_Browser@@QBEPAXH@Z
?display@Fl_Browser@@QAEXHH@Z
?find_line@Fl_Browser@@ABEPAUFL_BLINE@@H@Z
?format_char@Fl_Browser@@QBEDXZ
?full_height@Fl_Browser@@EBEHXZ
?hide@Fl_Browser@@QAEXH@Z
?incr_height@Fl_Browser@@EBEHXZ
?insert@Fl_Browser@@AAEXHPAUFL_BLINE@@@Z
?insert@Fl_Browser@@QAEXHPBDPAX@Z
?item_draw@Fl_Browser@@EBEXPAXHHHH@Z
?item_first@Fl_Browser@@EBEPAXXZ
?item_height@Fl_Browser@@EBEHPAX@Z
?item_next@Fl_Browser@@EBEPAXPAX@Z
?item_prev@Fl_Browser@@EBEPAXPAX@Z
?item_select@Fl_Browser@@EAEXPAXH@Z
?item_selected@Fl_Browser@@EBEHPAX@Z
?item_width@Fl_Browser@@EBEHPAX@Z
?lineno@Fl_Browser@@ABEHPAX@Z
?lineposition@Fl_Browser@@QAEXHW4Fl_Line_Position@1@@Z
?move@Fl_Browser@@QAEXHH@Z
?redraw_lines@Fl_Browser_@@IAEXXZ
?remove@Fl_Browser@@QAEXH@Z
?select@Fl_Browser@@QAEHHH@Z
?selected@Fl_Browser@@QBEHH@Z
?selection@Fl_Browser_@@IBEPAXXZ
?selection_text_color@Fl_Widget@@QBEIXZ
?show@Fl_Browser@@QAEXH@Z
?text@Fl_Browser@@QAEXHPBD@Z
?text@Fl_Browser@@QBEPBDH@Z
?text_color@Fl_Widget@@QBEIXZ
?text_font@Fl_Widget@@QBEPBUFl_Font_@@XZ
?text_size@Fl_Widget@@QBEIXZ
?textfont@Fl_Widget@@QBEPBUFl_Font_@@XZ
?textsize@Fl_Widget@@QBEIXZ
?top@Fl_Browser_@@IBEPAXXZ
?topline@Fl_Browser@@QBEHXZ
?value@Fl_Browser@@QBEHXZ
?visible@Fl_Browser@@QBEHH@Z
?draw@Fl_Boxtype_@@QBEXHHHHII@Z
?fl_border_box@@3UFl_Boxtype_@@B
?fl_border_frame@@3UFl_Boxtype_@@B
?fl_down_box@@3UFl_Boxtype_@@A
?fl_embossed_box@@3UFl_Boxtype_@@B
?fl_engraved_box@@3UFl_Boxtype_@@B
?fl_flat_box@@3UFl_Boxtype_@@B
?fl_flat_down_box@@3UFl_Boxtype_@@B
?fl_flat_up_box@@3UFl_Boxtype_@@B
?fl_frame@@YAXPBUFl_Boxtype_@@HHHHII@Z
?fl_no_box@@3UFl_Boxtype_@@B
?fl_normal_box@@3UFl_Boxtype_@@A
?fl_thin_box@@3UFl_Boxtype_@@B
?fl_thin_down_box@@3UFl_Boxtype_@@B
?fl_to_inactive@@YAXPBDPAD@Z
??0Fl_Box@@QAE@HHHHPBD@Z
??1Fl_Box@@UAE@XZ
??_7Fl_Box@@6B@
?draw@Fl_Box@@MAEXXZ
?fl_box_style_definer@@3VFl_Style_Definer@@A
?style@Fl_Widget@@QAEHAAUFl_Style@@@Z
?SetError@@YAXPAD@Z
?measure@Fl_BMP_Image@@UAEXAAH0@Z
?read@Fl_BMP_Image@@EAEXXZ
?test@Fl_BMP_Image@@SAHPAEI@Z
?draw@Fl_Bitmap@@UAEXHHHHHH@Z
?fl_create_bitmap@@YAKPBEHH@Z
?align@Fl_Widget@@QAEXI@Z
?box@Fl_Widget@@QAEXPBUFl_Boxtype_@@@Z
?color@Fl_Widget@@QAEXI@Z
?end@Fl_Group@@QAEXXZ
?fl_alert@@YAXPBDZZ
?fl_ask@@YAHPBDZZ
?fl_cancel@@3PBDB
?fl_choice@@YAHPBD000ZZ
?fl_input@@YAPBDPBD0ZZ
?fl_message@@YAXPBDZZ
?fl_message_font_@@3EA
?fl_message_icon@@YAPAVFl_Widget@@XZ
?fl_message_size_@@3EA
?fl_no@@3PBDB
?fl_ok@@3PBDB
?fl_password@@YAPBDPBD0ZZ
?fl_yes@@3PBDB
?label@Fl_Widget@@QAEXPBD@Z
?label@Fl_Widget@@QBEPBDXZ
?labelcolor@Fl_Widget@@QAEXI@Z
?labelfont@Fl_Widget@@QAEXPBUFl_Font_@@@Z
?labelsize@Fl_Widget@@QAEXI@Z
?parent@Fl_Widget@@QBEPAVFl_Group@@XZ
?position@Fl_Widget@@QAEXHH@Z
?set_flag@Fl_Widget@@IAEXI@Z
?set_modal@Fl_Window@@QAEXXZ
?shortcut@Fl_Button@@QAEXH@Z
?shortcut@Fl_Button@@QAEXPBD@Z
?type@Fl_Widget@@QAEXE@Z
?value@Fl_Input_@@QBEPBDXZ
?XParseGeometry@@YAHPBDPAH1PAI2@Z
?arg@Fl@@SAHHPAPADAAH@Z
?args@Fl@@SAHHPAPADAAHP6AHH01@Z@Z
?args@Fl@@SAXHPAPAD@Z
?fl_rgb@@YAIEEE@Z
?h@Fl_Widget@@QBEHXZ
?help@Fl@@2QBDB
?label@Fl_Widget@@QBEPBDXZ
?label@Fl_Window@@QBEPBDXZ
?resizable@Fl_Group@@QAEXPAVFl_Widget@@@Z
?resizable@Fl_Group@@QBEPAVFl_Widget@@XZ
?show@Fl_Window@@QAEXHPAPAD@Z
?size@Fl_Widget@@QAEXHH@Z
?w@Fl_Widget@@QBEHXZ
?x@Fl_Widget@@IAEXH@Z
?x@Fl_Widget@@QBEHXZ
?xclass@Fl_Window@@QAEXPBD@Z
?xclass@Fl_Window@@QBEPBDXZ
?y@Fl_Widget@@QBEHXZ
?fl_arc@@YAXHHHHNN@Z
?fl_pie@@YAXHHHHNN@Z
?fl_arc@@YAXNNNNN@Z
??0Fl_Adjuster@@QAE@HHHHPBD@Z
??0Fl_Bitmap@@QAE@PBEHH@Z
??0Fl_Image@@QAE@XZ
??1Fl_Adjuster@@UAE@XZ
??1Fl_Bitmap@@UAE@XZ
??1Fl_Valuator@@UAE@XZ
??_7Fl_Adjuster@@6B@
??_7Fl_Bitmap@@6B@
??_7Fl_Image@@6B@
?draw@Fl_Adjuster@@MAEXXZ
?draw@Fl_Bitmap@@QAEXHHHHI@Z
?event_is_click@Fl@@SAHXZ
?event_state@Fl@@SAHXZ
?event_x@Fl@@SAHXZ
?event_y@Fl@@SAHXZ
?h@Fl_Widget@@QBEHXZ
?handle@Fl_Adjuster@@MAEHH@Z
?handle_push@Fl_Valuator@@IAEXXZ
?highlight_color@Fl_Widget@@QBEIXZ
?off_color@Fl_Widget@@QBEIXZ
?previous_value@Fl_Valuator@@IBENXZ
?pushed@Fl@@SAPAVFl_Widget@@XZ
?soft@Fl_Adjuster@@QBEHXZ
?step@Fl_Valuator@@QAEXN@Z
?step@Fl_Valuator@@QAEXNH@Z
?takesevents@Fl_Widget@@QBEHXZ
?value_damage@Fl_Adjuster@@MAEXXZ
?w@Fl_Widget@@QBEHXZ
?x@Fl_Widget@@QBEHXZ
?y@Fl_Widget@@QBEHXZ
?add_idle@Fl@@SAXP6AXPAX@Z0@Z
?remove_idle@Fl@@SAXP6AXPAX@Z0@Z
?set_idle@Fl@@SAXP6AXXZ@Z
?error@Fl@@2P6AXPBDZZA
?fatal@Fl@@2P6AXPBDZZA
?warning@Fl@@2P6AXPBDZZA
??1Fl_Window@@UAE@XZ
??_7Fl_Window@@6B@
?XDestroyRegion@@YAXPAX@Z
?XRectangleRegion@@YAPAXHHHH@Z
?add_handler@Fl@@SAXP6AHH@Z@Z
?add_timeout@Fl@@SAXNP6AXPAX@Z0@Z
?belowmouse@Fl@@SAPAVFl_Widget@@XZ
?belowmouse@Fl@@SAXPAVFl_Widget@@@Z
?belowmouse_@Fl@@2PAVFl_Widget@@A
?check@Fl@@SAHXZ
?clear_damage@Fl_Widget@@QAEXE@Z
?current@Fl_Group@@SAXPAV1@@Z
?damage@Fl@@SAHXZ
?damage@Fl@@SAXH@Z
?damage@Fl_Widget@@QAEXE@Z
?damage@Fl_Widget@@QAEXEHHHH@Z
?damage@Fl_Widget@@QBEEXZ
?damage_@Fl@@2HA
?destroy@Fl_Window@@MAEXXZ
?do_callback@Fl_Widget@@QAEXXZ
?e_clicks@Fl@@2HA
?e_is_click@Fl@@2HA
?e_keysym@Fl@@2HA
?e_length@Fl@@2HA
?e_state@Fl@@2HA
?e_text@Fl@@2PADA
?e_x@Fl@@2HA
?e_x_root@Fl@@2HA
?e_y@Fl@@2HA
?e_y_root@Fl@@2HA
?enter@Fl_Tooltip@@SAXPAVFl_Widget@@@Z
?event_inside@Fl@@SAHHHHH@Z
?event_inside@Fl@@SAHPBVFl_Widget@@@Z
?event_is_click@Fl@@SAXH@Z
?event_key@Fl@@SAHXZ
?event_state@Fl@@SAHXZ
?event_text@Fl@@SAPBDXZ
?event_x@Fl@@SAHXZ
?event_y@Fl@@SAHXZ
?exec@Fl_Window@@QAEHPBV1@@Z
?exit@Fl_Tooltip@@SAXPAVFl_Widget@@@Z
?first@Fl_X@@2PAV1@A
?first_window@Fl@@SAPAVFl_Window@@XZ
?fl_find@@YAPAVFl_Window@@PAX@Z
?fl_fix_focus@@YAXXZ
?fl_old_shortcut@@YAHPBD@Z
?fl_oldfocus@@3PAVFl_Widget@@A
?fl_plugins_user_location@@3PBDB
?fl_xfocus@@3PAVFl_Window@@A
?fl_xmousewin@@3PAVFl_Window@@A
?flags@Fl_Widget@@QBEIXZ
?flush@Fl@@SAXXZ
?flush@Fl_Window@@UAEXXZ
?focus@Fl@@SAPAVFl_Widget@@XZ
?focus@Fl@@SAXPAVFl_Widget@@@Z
?focus_@Fl@@2PAVFl_Widget@@A
?grab@Fl@@SAPAVFl_Window@@XZ
?grab_@Fl@@2PAVFl_Window@@A
?h@Fl_Widget@@QBEHXZ
?handle@Fl@@SAHHPAVFl_Window@@@Z
?handle@Fl_Window@@UAEHH@Z
?hide@Fl_Window@@QAEXXZ
?i@Fl_X@@SAPAV1@PBVFl_Window@@@Z
?idle@Fl@@2P6AXXZA
?modal@Fl@@SAPAVFl_Window@@XZ
?modal@Fl_Window@@QBEHXZ
?modal_@Fl@@2PAVFl_Window@@A
?next_window@Fl@@SAPAVFl_Window@@PBV2@@Z
?non_modal@Fl_Window@@QBEHXZ
?parent@Fl_Widget@@QBEPAVFl_Group@@XZ
?pushed@Fl@@SAPAVFl_Widget@@XZ
?pushed@Fl@@SAXPAVFl_Widget@@@Z
?pushed_@Fl@@2PAVFl_Widget@@A
?ready@Fl@@SAHXZ
?redraw@Fl@@SAXXZ
?redraw@Fl_Widget@@QAEXXZ
?remove_timeout@Fl@@SAXP6AXPAX@Z0@Z
?resizable@Fl_Group@@QBEPAVFl_Widget@@XZ
?run@Fl@@SAHXZ
?selection_owner@Fl@@SAPAVFl_Widget@@XZ
?selection_owner@Fl@@SAXPAVFl_Widget@@@Z
?selection_owner_@Fl@@2PAVFl_Widget@@A
?set_flag@Fl_Widget@@IAEXI@Z
?set_modal@Fl_Window@@QAEXXZ
?set_visible@Fl_Widget@@QAEXXZ
?show@Fl_Window@@QAEXPBV1@@Z
?show@Fl_Window@@QAEXXZ
?show_inside@Fl_Window@@QAEXPBV1@@Z
?shown@Fl_Window@@QBEHXZ
?size_range@Fl_Window@@QAEXHHHHHHH@Z
?throw_focus@Fl_Widget@@QAEXXZ
?type@Fl_Widget@@QBEEXZ
?value@Fl_Widget@@QBEHXZ
?visible@Fl_Widget@@QBEHXZ
?w@Fl_Widget@@QBEHXZ
?wait@Fl@@SAHXZ
?wait@Fl@@SANN@Z
?x@Fl_Widget@@QBEHXZ
?y@Fl_Widget@@QBEHXZ
?filename_setext@@YAPADPADPBD@Z
?filename_match@@YAHPBD0@Z
?filename_list@@YAHPBDPAPAPAUdirent@@@Z
?filename_isdir@@YAHPBD@Z
?filename_ext@@YAPBDPBD@Z
?filename_expand@@YAHPADPBD@Z
?filename_absolute@@YAHPADPBD@Z
?isdirsep@@YAHD@Z
